(dp0
S'METTS MARK'
p1
(dp2
S'salary'
p3
L365788L
sS'to_messages'
p4
F807.0
sS'from_this_person_to_poi_ratio'
p5
F0.034482758620689655
sS'deferral_payments'
p6
L0L
sS'total_payments'
p7
L1061827L
sS'loan_advances'
p8
L0L
sS'bonus'
p9
L600000L
sS'long_term_incentive'
p10
L0L
sS'restricted_stock_deferred'
p11
L0L
sS'total_stock_value'
p12
L585062L
sS'expenses'
p13
L94299L
sS'from_poi_to_this_person'
p14
F0.0012391573729863693
sS'exercised_stock_options'
p15
L0L
sS'from_messages'
p16
F29.0
sS'other'
p17
L1740L
sS'from_this_person_to_poi'
p18
F1.0
sS'poi'
p19
I00
sS'deferred_income'
p20
L0L
sS'shared_receipt_with_poi'
p21
F702.0
sS'restricted_stock'
p22
L585062L
sS'director_fees'
p23
L0L
ssS'BAXTER JOHN C'
p24
(dp25
g3
L267102L
sg4
F383.0
sg5
F0.0
sg6
L1295738L
sg7
L5634343L
sg8
L0L
sg9
L1200000L
sg10
L1586055L
sg11
L0L
sg12
L10623258L
sg13
L11200L
sg14
F0.0
sg15
L6680544L
sg16
F18.0
sg17
L2660303L
sg18
F0.0
sg19
I00
sg20
L-1386055L
sg21
F114.0
sg22
L3942714L
sg23
L0L
ssS'ELLIOTT STEVEN'
p26
(dp27
g3
L170941L
sg4
F383.0
sg5
F0.0
sg6
L0L
sg7
L211725L
sg8
L0L
sg9
L350000L
sg10
L0L
sg11
L0L
sg12
L6678735L
sg13
L78552L
sg14
F0.0
sg15
L4890344L
sg16
F18.0
sg17
L12961L
sg18
F0.0
sg19
I00
sg20
L-400729L
sg21
F114.0
sg22
L1788391L
sg23
L0L
ssS'CORDES WILLIAM R'
p28
(dp29
g3
L0L
sg4
F764.0
sg5
F0.0
sg6
L0L
sg7
L0L
sg8
L0L
sg9
L0L
sg10
L0L
sg11
L0L
sg12
L1038185L
sg13
L0L
sg14
F0.0
sg15
L651850L
sg16
F12.0
sg17
L0L
sg18
F0.0
sg19
I00
sg20
L0L
sg21
F58.0
sg22
L386335L
sg23
L0L
ssS'HANNON KEVIN P'
p30
(dp31
g3
L243293L
sg4
F1045.0
sg5
F0.65625
sg6
L0L
sg7
L288682L
sg8
L0L
sg9
L1500000L
sg10
L1617011L
sg11
L0L
sg12
L6391065L
sg13
L34039L
sg14
F0.020095693779904306
sg15
L5538001L
sg16
F32.0
sg17
L11350L
sg18
F21.0
sg19
I01
sg20
L-3117011L
sg21
F1035.0
sg22
L853064L
sg23
L0L
ssS'MORDAUNT KRISTINA M'
p32
(dp33
g3
L267093L
sg4
F383.0
sg5
F0.0
sg6
L0L
sg7
L628522L
sg8
L0L
sg9
L325000L
sg10
L0L
sg11
L0L
sg12
L208510L
sg13
L35018L
sg14
F0.0
sg15
L0L
sg16
F18.0
sg17
L1411L
sg18
F0.0
sg19
I00
sg20
L0L
sg21
F114.0
sg22
L208510L
sg23
L0L
ssS'MEYER ROCKFORD G'
p34
(dp35
g3
L0L
sg4
F232.0
sg5
F0.0
sg6
L1848227L
sg7
L1848227L
sg8
L0L
sg9
L0L
sg10
L0L
sg11
L0L
sg12
L955873L
sg13
L0L
sg14
F0.0
sg15
L493489L
sg16
F28.0
sg17
L0L
sg18
F0.0
sg19
I00
sg20
L0L
sg21
F22.0
sg22
L462384L
sg23
L0L
ssS'MCMAHON JEFFREY'
p36
(dp37
g3
L370448L
sg4
F2355.0
sg5
F0.5416666666666666
sg6
L0L
sg7
L4099771L
sg8
L0L
sg9
L2600000L
sg10
L694862L
sg11
L0L
sg12
L1662855L
sg13
L137108L
sg14
F0.011040339702760084
sg15
L1104054L
sg16
F48.0
sg17
L297353L
sg18
F26.0
sg19
I00
sg20
L0L
sg21
F2228.0
sg22
L558801L
sg23
L0L
ssS'HORTON STANLEY C'
p38
(dp39
g3
L0L
sg4
F2350.0
sg5
F0.013979496738117428
sg6
L3131860L
sg7
L3131860L
sg8
L0L
sg9
L0L
sg10
L0L
sg11
L0L
sg12
L7256648L
sg13
L0L
sg14
F0.006382978723404255
sg15
L5210569L
sg16
F1073.0
sg17
L0L
sg18
F15.0
sg19
I00
sg20
L0L
sg21
F1074.0
sg22
L2046079L
sg23
L0L
ssS'PIPER GREGORY F'
p40
(dp41
g3
L197091L
sg4
F1238.0
sg5
F0.21621621621621623
sg6
L1130036L
sg7
L1737629L
sg8
L0L
sg9
L400000L
sg10
L0L
sg11
L-409554L
sg12
L880290L
sg13
L43057L
sg14
F0.03877221324717286
sg15
L880290L
sg16
F222.0
sg17
L778L
sg18
F48.0
sg19
I00
sg20
L-33333L
sg21
F742.0
sg22
L409554L
sg23
L0L
ssS'HUMPHREY GENE E'
p42
(dp43
g3
L130724L
sg4
F128.0
sg5
F1.0
sg6
L2964506L
sg7
L3100224L
sg8
L0L
sg9
L0L
sg10
L0L
sg11
L0L
sg12
L2282768L
sg13
L4994L
sg14
F0.1328125
sg15
L2282768L
sg16
F17.0
sg17
L0L
sg18
F17.0
sg19
I00
sg20
L0L
sg21
F119.0
sg22
L0L
sg23
L0L
ssS'UMANOFF ADAM S'
p44
(dp45
g3
L288589L
sg4
F111.0
sg5
F0.0
sg6
L0L
sg7
L1130461L
sg8
L0L
sg9
L788750L
sg10
L0L
sg11
L0L
sg12
L0L
sg13
L53122L
sg14
F0.0
sg15
L0L
sg16
F18.0
sg17
L0L
sg18
F0.0
sg19
I00
sg20
L0L
sg21
F41.0
sg22
L0L
sg23
L0L
ssS'BLACHMAN JEREMY M'
p46
(dp47
g3
L248546L
sg4
F2475.0
sg5
F0.14285714285714285
sg6
L0L
sg7
L2014835L
sg8
L0L
sg9
L850000L
sg10
L831809L
sg11
L0L
sg12
L954354L
sg13
L84208L
sg14
F0.0008080808080808081
sg15
L765313L
sg16
F14.0
sg17
L272L
sg18
F2.0
sg19
I00
sg20
L0L
sg21
F2326.0
sg22
L189041L
sg23
L0L
ssS'SUNDE MARTIN'
p48
(dp49
g3
L257486L
sg4
F2647.0
sg5
F0.34210526315789475
sg6
L0L
sg7
L1545059L
sg8
L0L
sg9
L700000L
sg10
L476451L
sg11
L0L
sg12
L698920L
sg13
L0L
sg14
F0.004911220249338874
sg15
L0L
sg16
F38.0
sg17
L111122L
sg18
F13.0
sg19
I00
sg20
L0L
sg21
F2565.0
sg22
L698920L
sg23
L0L
ssS'GIBBS DANA R'
p50
(dp51
g3
L0L
sg4
F169.0
sg5
F0.0
sg6
L504610L
sg7
L966522L
sg8
L0L
sg9
L0L
sg10
L461912L
sg11
L0L
sg12
L2218275L
sg13
L0L
sg14
F0.0
sg15
L2218275L
sg16
F12.0
sg17
L0L
sg18
F0.0
sg19
I00
sg20
L0L
sg21
F23.0
sg22
L0L
sg23
L0L
ssS'LOWRY CHARLES P'
p52
(dp53
g3
L0L
sg4
F383.0
sg5
F0.0
sg6
L0L
sg7
L0L
sg8
L0L
sg9
L0L
sg10
L0L
sg11
L-153686L
sg12
L372205L
sg13
L0L
sg14
F0.0
sg15
L372205L
sg16
F18.0
sg17
L0L
sg18
F0.0
sg19
I00
sg20
L0L
sg21
F114.0
sg22
L153686L
sg23
L0L
ssS'COLWELL WESLEY'
p54
(dp55
g3
L288542L
sg4
F1758.0
sg5
F0.275
sg6
L27610L
sg7
L1490344L
sg8
L0L
sg9
L1200000L
sg10
L0L
sg11
L0L
sg12
L698242L
sg13
L16514L
sg14
F0.006257110352673493
sg15
L0L
sg16
F40.0
sg17
L101740L
sg18
F11.0
sg19
I01
sg20
L-144062L
sg21
F1132.0
sg22
L698242L
sg23
L0L
ssS'MULLER MARK S'
p56
(dp57
g3
L251654L
sg4
F136.0
sg5
F0.0
sg6
L842924L
sg7
L3202070L
sg8
L0L
sg9
L1100000L
sg10
L1725545L
sg11
L0L
sg12
L1416848L
sg13
L0L
sg14
F0.0
sg15
L1056320L
sg16
F16.0
sg17
L947L
sg18
F0.0
sg19
I00
sg20
L-719000L
sg21
F114.0
sg22
L360528L
sg23
L0L
ssS'JACKSON CHARLENE R'
p58
(dp59
g3
L288558L
sg4
F258.0
sg5
F0.3392857142857143
sg6
L0L
sg7
L551174L
sg8
L0L
sg9
L250000L
sg10
L0L
sg11
L0L
sg12
L725735L
sg13
L10181L
sg14
F0.07364341085271318
sg15
L185063L
sg16
F56.0
sg17
L2435L
sg18
F19.0
sg19
I00
sg20
L0L
sg21
F117.0
sg22
L540672L
sg23
L0L
ssS'WESTFAHL RICHARD K'
p60
(dp61
g3
L63744L
sg4
F383.0
sg5
F0.0
sg6
L0L
sg7
L762135L
sg8
L0L
sg9
L0L
sg10
L256191L
sg11
L0L
sg12
L384930L
sg13
L51870L
sg14
F0.0
sg15
L0L
sg16
F18.0
sg17
L401130L
sg18
F0.0
sg19
I00
sg20
L-10800L
sg21
F114.0
sg22
L384930L
sg23
L0L
ssS'WALTERS GARETH W'
p62
(dp63
g3
L0L
sg4
F383.0
sg5
F0.0
sg6
L53625L
sg7
L87410L
sg8
L0L
sg9
L0L
sg10
L0L
sg11
L0L
sg12
L1030329L
sg13
L33785L
sg14
F0.0
sg15
L1030329L
sg16
F18.0
sg17
L0L
sg18
F0.0
sg19
I00
sg20
L0L
sg21
F114.0
sg22
L0L
sg23
L0L
ssS'WALLS JR ROBERT H'
p64
(dp65
g3
L357091L
sg4
F671.0
sg5
F0.0
sg6
L0L
sg7
L1798780L
sg8
L0L
sg9
L850000L
sg10
L540751L
sg11
L0L
sg12
L5898997L
sg13
L50936L
sg14
F0.0
sg15
L4346544L
sg16
F146.0
sg17
L2L
sg18
F0.0
sg19
I00
sg20
L0L
sg21
F215.0
sg22
L1552453L
sg23
L0L
ssS'KITCHEN LOUISE'
p66
(dp67
g3
L271442L
sg4
F8305.0
sg5
F0.11226851851851852
sg6
L0L
sg7
L3471141L
sg8
L0L
sg9
L3100000L
sg10
L0L
sg11
L0L
sg12
L547143L
sg13
L5774L
sg14
F0.023359422034918725
sg15
L81042L
sg16
F1728.0
sg17
L93925L
sg18
F194.0
sg19
I00
sg20
L0L
sg21
F3669.0
sg22
L466101L
sg23
L0L
ssS'CHAN RONNIE'
p68
(dp69
g3
L0L
sg4
F383.0
sg5
F0.0
sg6
L0L
sg7
L0L
sg8
L0L
sg9
L0L
sg10
L0L
sg11
L-32460L
sg12
L0L
sg13
L0L
sg14
F0.0
sg15
L0L
sg16
F18.0
sg17
L0L
sg18
F0.0
sg19
I00
sg20
L-98784L
sg21
F114.0
sg22
L32460L
sg23
L98784L
ssS'BELFER ROBERT'
p70
(dp71
g3
L0L
sg4
F383.0
sg5
F0.0
sg6
L-102500L
sg7
L102500L
sg8
L0L
sg9
L0L
sg10
L0L
sg11
L44093L
sg12
L-44093L
sg13
L0L
sg14
F0.0
sg15
L3285L
sg16
F18.0
sg17
L0L
sg18
F0.0
sg19
I00
sg20
L0L
sg21
F114.0
sg22
L0L
sg23
L3285L
ssS'SHANKMAN JEFFREY A'
p72
(dp73
g3
L304110L
sg4
F3221.0
sg5
F0.030958597538232
sg6
L0L
sg7
L3038702L
sg8
L0L
sg9
L2000000L
sg10
L554422L
sg11
L0L
sg12
L2072035L
sg13
L178979L
sg14
F0.025768394908413535
sg15
L1441898L
sg16
F2681.0
sg17
L1191L
sg18
F83.0
sg19
I00
sg20
L0L
sg21
F1730.0
sg22
L630137L
sg23
L0L
ssS'WODRASKA JOHN'
p74
(dp75
g3
L0L
sg4
F383.0
sg5
F0.0
sg6
L0L
sg7
L189583L
sg8
L0L
sg9
L0L
sg10
L0L
sg11
L0L
sg12
L0L
sg13
L0L
sg14
F0.0
sg15
L0L
sg16
F18.0
sg17
L189583L
sg18
F0.0
sg19
I00
sg20
L0L
sg21
F114.0
sg22
L0L
sg23
L0L
ssS'BERGSIEKER RICHARD P'
p76
(dp77
g3
L187922L
sg4
F383.0
sg5
F0.0
sg6
L0L
sg7
L618850L
sg8
L0L
sg9
L250000L
sg10
L180250L
sg11
L0L
sg12
L659249L
sg13
L59175L
sg14
F0.0
sg15
L0L
sg16
F59.0
sg17
L427316L
sg18
F0.0
sg19
I00
sg20
L-485813L
sg21
F233.0
sg22
L659249L
sg23
L0L
ssS'URQUHART JOHN A'
p78
(dp79
g3
L0L
sg4
F383.0
sg5
F0.0
sg6
L0L
sg7
L228656L
sg8
L0L
sg9
L0L
sg10
L0L
sg11
L0L
sg12
L0L
sg13
L228656L
sg14
F0.0
sg15
L0L
sg16
F18.0
sg17
L0L
sg18
F0.0
sg19
I00
sg20
L-36666L
sg21
F114.0
sg22
L0L
sg23
L36666L
ssS'BIBI PHILIPPE A'
p80
(dp81
g3
L213625L
sg4
F1607.0
sg5
F0.2
sg6
L0L
sg7
L2047593L
sg8
L0L
sg9
L1000000L
sg10
L369721L
sg11
L0L
sg12
L1843816L
sg13
L38559L
sg14
F0.004978220286247666
sg15
L1465734L
sg16
F40.0
sg17
L425688L
sg18
F8.0
sg19
I00
sg20
L0L
sg21
F1336.0
sg22
L378082L
sg23
L0L
ssS'PIRO JIM'
p82
(dp83
g3
L0L
sg4
F58.0
sg5
F0.0625
sg6
L0L
sg7
L0L
sg8
L0L
sg9
L0L
sg10
L0L
sg11
L0L
sg12
L47304L
sg13
L0L
sg14
F0.017241379310344827
sg15
L0L
sg16
F16.0
sg17
L0L
sg18
F1.0
sg19
I00
sg20
L0L
sg21
F3.0
sg22
L47304L
sg23
L0L
ssS'RIEKER PAULA H'
p84
(dp85
g3
L249201L
sg4
F1328.0
sg5
F0.5853658536585366
sg6
L214678L
sg7
L1099100L
sg8
L0L
sg9
L700000L
sg10
L0L
sg11
L0L
sg12
L1918887L
sg13
L33271L
sg14
F0.03614457831325301
sg15
L1635238L
sg16
F82.0
sg17
L1950L
sg18
F48.0
sg19
I01
sg20
L-100000L
sg21
F1258.0
sg22
L283649L
sg23
L0L
ssS'WHALEY DAVID A'
p86
(dp87
g3
L0L
sg4
F383.0
sg5
F0.0
sg6
L0L
sg7
L0L
sg8
L0L
sg9
L0L
sg10
L0L
sg11
L0L
sg12
L98718L
sg13
L0L
sg14
F0.0
sg15
L98718L
sg16
F18.0
sg17
L0L
sg18
F0.0
sg19
I00
sg20
L0L
sg21
F114.0
sg22
L0L
sg23
L0L
ssS'BECK SALLY W'
p88
(dp89
g3
L231330L
sg4
F7315.0
sg5
F0.08887865530739121
sg6
L0L
sg7
L969068L
sg8
L0L
sg9
L700000L
sg10
L0L
sg11
L0L
sg12
L126027L
sg13
L37172L
sg14
F0.052768284347231714
sg15
L0L
sg16
F4343.0
sg17
L566L
sg18
F386.0
sg19
I00
sg20
L0L
sg21
F2639.0
sg22
L126027L
sg23
L0L
ssS'HAUG DAVID L'
p90
(dp91
g3
L0L
sg4
F573.0
sg5
F0.3684210526315789
sg6
L0L
sg7
L475L
sg8
L0L
sg9
L0L
sg10
L0L
sg11
L0L
sg12
L2217299L
sg13
L475L
sg14
F0.012216404886561954
sg15
L0L
sg16
F19.0
sg17
L0L
sg18
F7.0
sg19
I00
sg20
L0L
sg21
F471.0
sg22
L2217299L
sg23
L0L
ssS'ECHOLS JOHN B'
p92
(dp93
g3
L182245L
sg4
F383.0
sg5
F0.0
sg6
L0L
sg7
L2692324L
sg8
L0L
sg9
L200000L
sg10
L2234774L
sg11
L0L
sg12
L1008941L
sg13
L21530L
sg14
F0.0
sg15
L601438L
sg16
F18.0
sg17
L53775L
sg18
F0.0
sg19
I00
sg20
L0L
sg21
F114.0
sg22
L407503L
sg23
L0L
ssS'MENDELSOHN JOHN'
p94
(dp95
g3
L0L
sg4
F383.0
sg5
F0.0
sg6
L0L
sg7
L148L
sg8
L0L
sg9
L0L
sg10
L0L
sg11
L0L
sg12
L0L
sg13
L148L
sg14
F0.0
sg15
L0L
sg16
F18.0
sg17
L0L
sg18
F0.0
sg19
I00
sg20
L-103750L
sg21
F114.0
sg22
L0L
sg23
L103750L
ssS'HICKERSON GARY J'
p96
(dp97
g3
L211788L
sg4
F1320.0
sg5
F0.037037037037037035
sg6
L0L
sg7
L2081796L
sg8
L0L
sg9
L1700000L
sg10
L69223L
sg11
L0L
sg12
L441096L
sg13
L98849L
sg14
F0.0007575757575757576
sg15
L0L
sg16
F27.0
sg17
L1936L
sg18
F1.0
sg19
I00
sg20
L0L
sg21
F900.0
sg22
L441096L
sg23
L0L
ssS'CLINE KENNETH W'
p98
(dp99
g3
L0L
sg4
F383.0
sg5
F0.0
sg6
L0L
sg7
L0L
sg8
L0L
sg9
L0L
sg10
L0L
sg11
L-472568L
sg12
L189518L
sg13
L0L
sg14
F0.0
sg15
L0L
sg16
F18.0
sg17
L0L
sg18
F0.0
sg19
I00
sg20
L0L
sg21
F114.0
sg22
L662086L
sg23
L0L
ssS'LEWIS RICHARD'
p100
(dp101
g3
L0L
sg4
F952.0
sg5
F0.0
sg6
L0L
sg7
L0L
sg8
L0L
sg9
L0L
sg10
L0L
sg11
L0L
sg12
L850477L
sg13
L0L
sg14
F0.0
sg15
L850477L
sg16
F26.0
sg17
L0L
sg18
F0.0
sg19
I00
sg20
L0L
sg21
F739.0
sg22
L0L
sg23
L0L
ssS'HAYES ROBERT E'
p102
(dp103
g3
L0L
sg4
F504.0
sg5
F0.0
sg6
L7961L
sg7
L7961L
sg8
L0L
sg9
L0L
sg10
L0L
sg11
L0L
sg12
L151418L
sg13
L0L
sg14
F0.0
sg15
L0L
sg16
F12.0
sg17
L0L
sg18
F0.0
sg19
I00
sg20
L0L
sg21
F50.0
sg22
L151418L
sg23
L0L
ssS'KOPPER MICHAEL J'
p104
(dp105
g3
L224305L
sg4
F383.0
sg5
F0.0
sg6
L0L
sg7
L2652612L
sg8
L0L
sg9
L800000L
sg10
L602671L
sg11
L0L
sg12
L985032L
sg13
L118134L
sg14
F0.0
sg15
L0L
sg16
F18.0
sg17
L907502L
sg18
F0.0
sg19
I01
sg20
L0L
sg21
F114.0
sg22
L985032L
sg23
L0L
ssS'LEFF DANIEL P'
p106
(dp107
g3
L273746L
sg4
F2822.0
sg5
F0.2222222222222222
sg6
L0L
sg7
L2664228L
sg8
L0L
sg9
L1000000L
sg10
L1387399L
sg11
L0L
sg12
L360528L
sg13
L0L
sg14
F0.004961020552799433
sg15
L0L
sg16
F63.0
sg17
L3083L
sg18
F14.0
sg19
I00
sg20
L0L
sg21
F2672.0
sg22
L360528L
sg23
L0L
ssS'LAVORATO JOHN J'
p108
(dp109
g3
L339288L
sg4
F7259.0
sg5
F0.15899419729206962
sg6
L0L
sg7
L10425757L
sg8
L0L
sg9
L8000000L
sg10
L2035380L
sg11
L0L
sg12
L5167144L
sg13
L49537L
sg14
F0.05661936905909905
sg15
L4158995L
sg16
F2585.0
sg17
L1552L
sg18
F411.0
sg19
I00
sg20
L0L
sg21
F3962.0
sg22
L1008149L
sg23
L0L
ssS'BERBERIAN DAVID'
p110
(dp111
g3
L216582L
sg4
F383.0
sg5
F0.0
sg6
L0L
sg7
L228474L
sg8
L0L
sg9
L0L
sg10
L0L
sg11
L0L
sg12
L2493616L
sg13
L11892L
sg14
F0.0
sg15
L1624396L
sg16
F18.0
sg17
L0L
sg18
F0.0
sg19
I00
sg20
L0L
sg21
F114.0
sg22
L869220L
sg23
L0L
ssS'DETMERING TIMOTHY J'
p112
(dp113
g3
L210500L
sg4
F383.0
sg5
F0.0
sg6
L875307L
sg7
L1204583L
sg8
L0L
sg9
L425000L
sg10
L415657L
sg11
L-315068L
sg12
L2027865L
sg13
L52255L
sg14
F0.0
sg15
L2027865L
sg16
F18.0
sg17
L1105L
sg18
F0.0
sg19
I00
sg20
L-775241L
sg21
F114.0
sg22
L315068L
sg23
L0L
ssS'WAKEHAM JOHN'
p114
(dp115
g3
L0L
sg4
F383.0
sg5
F0.0
sg6
L0L
sg7
L213071L
sg8
L0L
sg9
L0L
sg10
L0L
sg11
L0L
sg12
L0L
sg13
L103773L
sg14
F0.0
sg15
L0L
sg16
F18.0
sg17
L0L
sg18
F0.0
sg19
I00
sg20
L0L
sg21
F114.0
sg22
L0L
sg23
L109298L
ssS'POWERS WILLIAM'
p116
(dp117
g3
L0L
sg4
F653.0
sg5
F0.0
sg6
L0L
sg7
L0L
sg8
L0L
sg9
L0L
sg10
L0L
sg11
L0L
sg12
L0L
sg13
L0L
sg14
F0.0
sg15
L0L
sg16
F26.0
sg17
L0L
sg18
F0.0
sg19
I00
sg20
L-17500L
sg21
F12.0
sg22
L0L
sg23
L17500L
ssS'GOLD JOSEPH'
p118
(dp119
g3
L272880L
sg4
F383.0
sg5
F0.0
sg6
L0L
sg7
L2146973L
sg8
L0L
sg9
L750000L
sg10
L304805L
sg11
L0L
sg12
L877611L
sg13
L0L
sg14
F0.0
sg15
L436515L
sg16
F18.0
sg17
L819288L
sg18
F0.0
sg19
I00
sg20
L0L
sg21
F114.0
sg22
L441096L
sg23
L0L
ssS'BANNANTINE JAMES M'
p120
(dp121
g3
L477L
sg4
F566.0
sg5
F0.0
sg6
L0L
sg7
L916197L
sg8
L0L
sg9
L0L
sg10
L0L
sg11
L-560222L
sg12
L5243487L
sg13
L56301L
sg14
F0.0
sg15
L4046157L
sg16
F29.0
sg17
L864523L
sg18
F0.0
sg19
I00
sg20
L-5104L
sg21
F465.0
sg22
L1757552L
sg23
L0L
ssS'DUNCAN JOHN H'
p122
(dp123
g3
L0L
sg4
F383.0
sg5
F0.0
sg6
L0L
sg7
L77492L
sg8
L0L
sg9
L0L
sg10
L0L
sg11
L0L
sg12
L371750L
sg13
L0L
sg14
F0.0
sg15
L371750L
sg16
F18.0
sg17
L0L
sg18
F0.0
sg19
I00
sg20
L-25000L
sg21
F114.0
sg22
L0L
sg23
L102492L
ssS'SHAPIRO RICHARD S'
p124
(dp125
g3
L269076L
sg4
F15149.0
sg5
F0.053497942386831275
sg6
L0L
sg7
L1057548L
sg8
L0L
sg9
L650000L
sg10
L0L
sg11
L0L
sg12
L987001L
sg13
L137767L
sg14
F0.004290712258234867
sg15
L607837L
sg16
F1215.0
sg17
L705L
sg18
F65.0
sg19
I00
sg20
L0L
sg21
F4527.0
sg22
L379164L
sg23
L0L
ssS'SHERRIFF JOHN R'
p126
(dp127
g3
L428780L
sg4
F3187.0
sg5
F0.25
sg6
L0L
sg7
L4335388L
sg8
L0L
sg9
L1500000L
sg10
L554422L
sg11
L0L
sg12
L3128982L
sg13
L0L
sg14
F0.0072168183244430495
sg15
L1835558L
sg16
F92.0
sg17
L1852186L
sg18
F23.0
sg19
I00
sg20
L0L
sg21
F2103.0
sg22
L1293424L
sg23
L0L
ssS'SHELBY REX'
p128
(dp129
g3
L211844L
sg4
F225.0
sg5
F0.358974358974359
sg6
L0L
sg7
L2003885L
sg8
L0L
sg9
L200000L
sg10
L0L
sg11
L0L
sg12
L2493616L
sg13
L22884L
sg14
F0.06222222222222222
sg15
L1624396L
sg16
F39.0
sg17
L1573324L
sg18
F14.0
sg19
I01
sg20
L-4167L
sg21
F91.0
sg22
L869220L
sg23
L0L
ssS'LEMAISTRE CHARLES'
p130
(dp131
g3
L0L
sg4
F383.0
sg5
F0.0
sg6
L0L
sg7
L87492L
sg8
L0L
sg9
L0L
sg10
L0L
sg11
L0L
sg12
L412878L
sg13
L0L
sg14
F0.0
sg15
L412878L
sg16
F18.0
sg17
L0L
sg18
F0.0
sg19
I00
sg20
L-25000L
sg21
F114.0
sg22
L0L
sg23
L112492L
ssS'DEFFNER JOSEPH M'
p132
(dp133
g3
L206121L
sg4
F714.0
sg5
F0.05405405405405406
sg6
L0L
sg7
L1208649L
sg8
L0L
sg9
L600000L
sg10
L335349L
sg11
L0L
sg12
L159211L
sg13
L41626L
sg14
F0.0056022408963585435
sg15
L17378L
sg16
F74.0
sg17
L25553L
sg18
F4.0
sg19
I00
sg20
L0L
sg21
F552.0
sg22
L141833L
sg23
L0L
ssS'KISHKILL JOSEPH G'
p134
(dp135
g3
L174246L
sg4
F383.0
sg5
F0.0
sg6
L0L
sg7
L704896L
sg8
L0L
sg9
L0L
sg10
L0L
sg11
L0L
sg12
L1034346L
sg13
L116335L
sg14
F0.0
sg15
L0L
sg16
F18.0
sg17
L465357L
sg18
F0.0
sg19
I00
sg20
L-51042L
sg21
F114.0
sg22
L1034346L
sg23
L0L
ssS'WHALLEY LAWRENCE G'
p136
(dp137
g3
L510364L
sg4
F6019.0
sg5
F0.04316546762589928
sg6
L0L
sg7
L4677574L
sg8
L0L
sg9
L3000000L
sg10
L808346L
sg11
L0L
sg12
L6079137L
sg13
L57838L
sg14
F0.003987373317826882
sg15
L3282960L
sg16
F556.0
sg17
L301026L
sg18
F24.0
sg19
I00
sg20
L0L
sg21
F3920.0
sg22
L2796177L
sg23
L0L
ssS'MCCARTY DANNY J'
p138
(dp139
g3
L0L
sg4
F1433.0
sg5
F0.009302325581395349
sg6
L0L
sg7
L0L
sg8
L0L
sg9
L0L
sg10
L0L
sg11
L0L
sg12
L758931L
sg13
L0L
sg14
F0.0013956734124214933
sg15
L664375L
sg16
F215.0
sg17
L0L
sg18
F2.0
sg19
I00
sg20
L0L
sg21
F508.0
sg22
L94556L
sg23
L0L
ssS'MCCONNELL MICHAEL S'
p140
(dp141
g3
L365038L
sg4
F3329.0
sg5
F0.07075127644055434
sg6
L0L
sg7
L2101364L
sg8
L0L
sg9
L1100000L
sg10
L554422L
sg11
L0L
sg12
L3101279L
sg13
L81364L
sg14
F0.058275758486031844
sg15
L1623010L
sg16
F2742.0
sg17
L540L
sg18
F194.0
sg19
I00
sg20
L0L
sg21
F2189.0
sg22
L1478269L
sg23
L0L
ssS'DELAINEY DAVID W'
p142
(dp143
g3
L365163L
sg4
F3093.0
sg5
F0.198435972629521
sg6
L0L
sg7
L4747979L
sg8
L0L
sg9
L3000000L
sg10
L1294981L
sg11
L0L
sg12
L3614261L
sg13
L86174L
sg14
F0.19689621726479145
sg15
L2291113L
sg16
F3069.0
sg17
L1661L
sg18
F609.0
sg19
I01
sg20
L0L
sg21
F2097.0
sg22
L1323148L
sg23
L0L
ssS'SULLIVAN-SHAKLOVITZ COLLEEN'
p144
(dp145
g3
L162779L
sg4
F383.0
sg5
F0.0
sg6
L181993L
sg7
L999356L
sg8
L0L
sg9
L100000L
sg10
L554422L
sg11
L0L
sg12
L1362375L
sg13
L0L
sg14
F0.0
sg15
L1362375L
sg16
F18.0
sg17
L162L
sg18
F0.0
sg19
I00
sg20
L0L
sg21
F114.0
sg22
L0L
sg23
L0L
ssS'WROBEL BRUCE'
p146
(dp147
g3
L0L
sg4
F383.0
sg5
F0.0
sg6
L0L
sg7
L0L
sg8
L0L
sg9
L0L
sg10
L0L
sg11
L0L
sg12
L139130L
sg13
L0L
sg14
F0.0
sg15
L139130L
sg16
F18.0
sg17
L0L
sg18
F0.0
sg19
I00
sg20
L0L
sg21
F114.0
sg22
L0L
sg23
L0L
ssS'LINDHOLM TOD A'
p148
(dp149
g3
L236457L
sg4
F383.0
sg5
F0.0
sg6
L204075L
sg7
L875889L
sg8
L0L
sg9
L200000L
sg10
L175000L
sg11
L0L
sg12
L3064208L
sg13
L57727L
sg14
F0.0
sg15
L2549361L
sg16
F18.0
sg17
L2630L
sg18
F0.0
sg19
I00
sg20
L0L
sg21
F114.0
sg22
L514847L
sg23
L0L
ssS'MEYER JEROME J'
p150
(dp151
g3
L0L
sg4
F383.0
sg5
F0.0
sg6
L0L
sg7
L2151L
sg8
L0L
sg9
L0L
sg10
L0L
sg11
L0L
sg12
L0L
sg13
L2151L
sg14
F0.0
sg15
L0L
sg16
F18.0
sg17
L0L
sg18
F0.0
sg19
I00
sg20
L-38346L
sg21
F114.0
sg22
L0L
sg23
L38346L
ssS'LAY KENNETH L'
p152
(dp153
g3
L1072321L
sg4
F4273.0
sg5
F0.4444444444444444
sg6
L202911L
sg7
L103559793L
sg8
L81525000L
sg9
L7000000L
sg10
L3600000L
sg11
L0L
sg12
L49110078L
sg13
L99832L
sg14
F0.003744441844137608
sg15
L34348384L
sg16
F36.0
sg17
L10359729L
sg18
F16.0
sg19
I01
sg20
L-300000L
sg21
F2411.0
sg22
L14761694L
sg23
L0L
ssS'BUTTS ROBERT H'
p154
(dp155
g3
L261516L
sg4
F383.0
sg5
F0.0
sg6
L0L
sg7
L1271582L
sg8
L0L
sg9
L750000L
sg10
L175000L
sg11
L0L
sg12
L417619L
sg13
L9410L
sg14
F0.0
sg15
L0L
sg16
F18.0
sg17
L150656L
sg18
F0.0
sg19
I00
sg20
L-75000L
sg21
F114.0
sg22
L417619L
sg23
L0L
ssS'OLSON CINDY K'
p156
(dp157
g3
L329078L
sg4
F1184.0
sg5
F0.28846153846153844
sg6
L77716L
sg7
L1321557L
sg8
L0L
sg9
L750000L
sg10
L100000L
sg11
L0L
sg12
L2606763L
sg13
L63791L
sg14
F0.01266891891891892
sg15
L1637034L
sg16
F52.0
sg17
L972L
sg18
F15.0
sg19
I00
sg20
L0L
sg21
F856.0
sg22
L969729L
sg23
L0L
ssS'MCDONALD REBECCA'
p158
(dp159
g3
L0L
sg4
F894.0
sg5
F0.07692307692307693
sg6
L0L
sg7
L0L
sg8
L0L
sg9
L0L
sg10
L0L
sg11
L0L
sg12
L1691366L
sg13
L0L
sg14
F0.0011185682326621924
sg15
L757301L
sg16
F13.0
sg17
L0L
sg18
F1.0
sg19
I00
sg20
L0L
sg21
F720.0
sg22
L934065L
sg23
L0L
ssS'CUMBERLAND MICHAEL S'
p160
(dp161
g3
L184899L
sg4
F383.0
sg5
F0.0
sg6
L0L
sg7
L807956L
sg8
L0L
sg9
L325000L
sg10
L275000L
sg11
L0L
sg12
L207940L
sg13
L22344L
sg14
F0.0
sg15
L0L
sg16
F18.0
sg17
L713L
sg18
F0.0
sg19
I00
sg20
L0L
sg21
F114.0
sg22
L207940L
sg23
L0L
ssS'GAHN ROBERT S'
p162
(dp163
g3
L192008L
sg4
F383.0
sg5
F0.0
sg6
L73122L
sg7
L900585L
sg8
L0L
sg9
L509870L
sg10
L0L
sg11
L0L
sg12
L318607L
sg13
L50080L
sg14
F0.0
sg15
L83237L
sg16
F18.0
sg17
L76547L
sg18
F0.0
sg19
I00
sg20
L-1042L
sg21
F114.0
sg22
L235370L
sg23
L0L
ssS'MCCLELLAN GEORGE'
p164
(dp165
g3
L263413L
sg4
F1744.0
sg5
F0.0
sg6
L0L
sg7
L1318763L
sg8
L0L
sg9
L900000L
sg10
L0L
sg11
L0L
sg12
L947861L
sg13
L228763L
sg14
F0.0
sg15
L506765L
sg16
F49.0
sg17
L51587L
sg18
F0.0
sg19
I00
sg20
L-125000L
sg21
F1469.0
sg22
L441096L
sg23
L0L
ssS'HERMANN ROBERT J'
p166
(dp167
g3
L262663L
sg4
F383.0
sg5
F0.0
sg6
L0L
sg7
L1297461L
sg8
L0L
sg9
L700000L
sg10
L150000L
sg11
L0L
sg12
L668132L
sg13
L48357L
sg14
F0.0
sg15
L187500L
sg16
F18.0
sg17
L416441L
sg18
F0.0
sg19
I00
sg20
L-280000L
sg21
F114.0
sg22
L480632L
sg23
L0L
ssS'SCRIMSHAW MATTHEW'
p168
(dp169
g3
L0L
sg4
F383.0
sg5
F0.0
sg6
L0L
sg7
L0L
sg8
L0L
sg9
L0L
sg10
L0L
sg11
L0L
sg12
L759557L
sg13
L0L
sg14
F0.0
sg15
L759557L
sg16
F18.0
sg17
L0L
sg18
F0.0
sg19
I00
sg20
L0L
sg21
F114.0
sg22
L0L
sg23
L0L
ssS'GATHMANN WILLIAM D'
p170
(dp171
g3
L0L
sg4
F383.0
sg5
F0.0
sg6
L0L
sg7
L0L
sg8
L0L
sg9
L0L
sg10
L0L
sg11
L-72419L
sg12
L1945360L
sg13
L0L
sg14
F0.0
sg15
L1753766L
sg16
F18.0
sg17
L0L
sg18
F0.0
sg19
I00
sg20
L0L
sg21
F114.0
sg22
L264013L
sg23
L0L
ssS'HAEDICKE MARK E'
p172
(dp173
g3
L374125L
sg4
F4009.0
sg5
F0.03142709943328181
sg6
L2157527L
sg7
L3859065L
sg8
L0L
sg9
L1150000L
sg10
L983346L
sg11
L-329825L
sg12
L803094L
sg13
L76169L
sg14
F0.015215764529807932
sg15
L608750L
sg16
F1941.0
sg17
L52382L
sg18
F61.0
sg19
I00
sg20
L-934484L
sg21
F1847.0
sg22
L524169L
sg23
L0L
ssS'BOWEN JR RAYMOND M'
p174
(dp175
g3
L278601L
sg4
F1858.0
sg5
F0.5555555555555556
sg6
L0L
sg7
L2669589L
sg8
L0L
sg9
L1350000L
sg10
L974293L
sg11
L0L
sg12
L252055L
sg13
L65907L
sg14
F0.008073196986006458
sg15
L0L
sg16
F27.0
sg17
L1621L
sg18
F15.0
sg19
I01
sg20
L-833L
sg21
F1593.0
sg22
L252055L
sg23
L0L
ssS'GILLIS JOHN'
p176
(dp177
g3
L0L
sg4
F383.0
sg5
F0.0
sg6
L0L
sg7
L0L
sg8
L0L
sg9
L0L
sg10
L0L
sg11
L0L
sg12
L85641L
sg13
L0L
sg14
F0.0
sg15
L9803L
sg16
F18.0
sg17
L0L
sg18
F0.0
sg19
I00
sg20
L0L
sg21
F114.0
sg22
L75838L
sg23
L0L
ssS'FITZGERALD JAY L'
p178
(dp179
g3
L199157L
sg4
F936.0
sg5
F0.5
sg6
L0L
sg7
L1414857L
sg8
L0L
sg9
L350000L
sg10
L556416L
sg11
L0L
sg12
L1621236L
sg13
L23870L
sg14
F0.008547008547008548
sg15
L664461L
sg16
F16.0
sg17
L285414L
sg18
F8.0
sg19
I00
sg20
L0L
sg21
F723.0
sg22
L956775L
sg23
L0L
ssS'MORAN MICHAEL P'
p180
(dp181
g3
L0L
sg4
F672.0
sg5
F0.0
sg6
L0L
sg7
L0L
sg8
L0L
sg9
L0L
sg10
L0L
sg11
L0L
sg12
L221141L
sg13
L0L
sg14
F0.0
sg15
L59539L
sg16
F19.0
sg17
L0L
sg18
F0.0
sg19
I00
sg20
L0L
sg21
F127.0
sg22
L161602L
sg23
L0L
ssS'REDMOND BRIAN L'
p182
(dp183
g3
L96840L
sg4
F1671.0
sg5
F0.22171945701357465
sg6
L0L
sg7
L111529L
sg8
L0L
sg9
L0L
sg10
L0L
sg11
L0L
sg12
L7890324L
sg13
L14689L
sg14
F0.029323758228605626
sg15
L7509039L
sg16
F221.0
sg17
L0L
sg18
F49.0
sg19
I00
sg20
L0L
sg21
F1063.0
sg22
L381285L
sg23
L0L
ssS'BAZELIDES PHILIP J'
p184
(dp185
g3
L80818L
sg4
F383.0
sg5
F0.0
sg6
L684694L
sg7
L860136L
sg8
L0L
sg9
L0L
sg10
L93750L
sg11
L0L
sg12
L1599641L
sg13
L0L
sg14
F0.0
sg15
L1599641L
sg16
F18.0
sg17
L874L
sg18
F0.0
sg19
I00
sg20
L0L
sg21
F114.0
sg22
L0L
sg23
L0L
ssS'BELDEN TIMOTHY N'
p186
(dp187
g3
L213999L
sg4
F7991.0
sg5
F0.2231404958677686
sg6
L2144013L
sg7
L5501630L
sg8
L0L
sg9
L5249999L
sg10
L0L
sg11
L0L
sg12
L1110705L
sg13
L17355L
sg14
F0.013515204605180828
sg15
L953136L
sg16
F484.0
sg17
L210698L
sg18
F108.0
sg19
I01
sg20
L-2334434L
sg21
F5521.0
sg22
L157569L
sg23
L0L
ssS'DURAN WILLIAM D'
p188
(dp189
g3
L210692L
sg4
F904.0
sg5
F0.25
sg6
L0L
sg7
L2093263L
sg8
L0L
sg9
L750000L
sg10
L1105218L
sg11
L0L
sg12
L1640910L
sg13
L25785L
sg14
F0.00331858407079646
sg15
L1451869L
sg16
F12.0
sg17
L1568L
sg18
F3.0
sg19
I00
sg20
L0L
sg21
F599.0
sg22
L189041L
sg23
L0L
ssS'THORN TERENCE H'
p190
(dp191
g3
L222093L
sg4
F266.0
sg5
F0.0
sg6
L16586L
sg7
L911453L
sg8
L0L
sg9
L0L
sg10
L200000L
sg11
L0L
sg12
L4817796L
sg13
L46145L
sg14
F0.0
sg15
L4452476L
sg16
F41.0
sg17
L426629L
sg18
F0.0
sg19
I00
sg20
L0L
sg21
F73.0
sg22
L365320L
sg23
L0L
ssS'FASTOW ANDREW S'
p192
(dp193
g3
L440698L
sg4
F383.0
sg5
F0.0
sg6
L0L
sg7
L2424083L
sg8
L0L
sg9
L1300000L
sg10
L1736055L
sg11
L0L
sg12
L1794412L
sg13
L55921L
sg14
F0.0
sg15
L0L
sg16
F18.0
sg17
L277464L
sg18
F0.0
sg19
I01
sg20
L-1386055L
sg21
F114.0
sg22
L1794412L
sg23
L0L
ssS'FOY JOE'
p194
(dp195
g3
L0L
sg4
F57.0
sg5
F0.0
sg6
L181755L
sg7
L181755L
sg8
L0L
sg9
L0L
sg10
L0L
sg11
L0L
sg12
L343434L
sg13
L0L
sg14
F0.0
sg15
L343434L
sg16
F13.0
sg17
L0L
sg18
F0.0
sg19
I00
sg20
L0L
sg21
F2.0
sg22
L0L
sg23
L0L
ssS'CALGER CHRISTOPHER F'
p196
(dp197
g3
L240189L
sg4
F2598.0
sg5
F0.1736111111111111
sg6
L0L
sg7
L1639297L
sg8
L0L
sg9
L1250000L
sg10
L375304L
sg11
L0L
sg12
L126027L
sg13
L35818L
sg14
F0.00962278675904542
sg15
L0L
sg16
F144.0
sg17
L486L
sg18
F25.0
sg19
I01
sg20
L-262500L
sg21
F2188.0
sg22
L126027L
sg23
L0L
ssS'RICE KENNETH D'
p198
(dp199
g3
L420636L
sg4
F905.0
sg5
F0.2222222222222222
sg6
L0L
sg7
L505050L
sg8
L0L
sg9
L1750000L
sg10
L1617011L
sg11
L0L
sg12
L22542539L
sg13
L46950L
sg14
F0.004419889502762431
sg15
L19794175L
sg16
F18.0
sg17
L174839L
sg18
F4.0
sg19
I01
sg20
L-3504386L
sg21
F864.0
sg22
L2748364L
sg23
L0L
ssS'KAMINSKI WINCENTY J'
p200
(dp201
g3
L275101L
sg4
F4607.0
sg5
F0.011901447661469933
sg6
L0L
sg7
L1086821L
sg8
L0L
sg9
L400000L
sg10
L323466L
sg11
L0L
sg12
L976037L
sg13
L83585L
sg14
F0.03711742999782939
sg15
L850010L
sg16
F14368.0
sg17
L4669L
sg18
F171.0
sg19
I00
sg20
L0L
sg21
F583.0
sg22
L126027L
sg23
L0L
ssS'COX DAVID'
p202
(dp203
g3
L314288L
sg4
F102.0
sg5
F0.12121212121212122
sg6
L0L
sg7
L1101393L
sg8
L0L
sg9
L800000L
sg10
L0L
sg11
L0L
sg12
L495633L
sg13
L27861L
sg14
F0.0392156862745098
sg15
L117551L
sg16
F33.0
sg17
L494L
sg18
F4.0
sg19
I00
sg20
L-41250L
sg21
F71.0
sg22
L378082L
sg23
L0L
ssS'OVERDYKE JR JERE C'
p204
(dp205
g3
L94941L
sg4
F383.0
sg5
F0.0
sg6
L0L
sg7
L249787L
sg8
L0L
sg9
L0L
sg10
L135836L
sg11
L0L
sg12
L7307594L
sg13
L18834L
sg14
F0.0
sg15
L5266578L
sg16
F18.0
sg17
L176L
sg18
F0.0
sg19
I00
sg20
L0L
sg21
F114.0
sg22
L2041016L
sg23
L0L
ssS'PEREIRA PAULO V. FERRAZ'
p206
(dp207
g3
L0L
sg4
F383.0
sg5
F0.0
sg6
L0L
sg7
L27942L
sg8
L0L
sg9
L0L
sg10
L0L
sg11
L0L
sg12
L0L
sg13
L27942L
sg14
F0.0
sg15
L0L
sg16
F18.0
sg17
L0L
sg18
F0.0
sg19
I00
sg20
L-101250L
sg21
F114.0
sg22
L0L
sg23
L101250L
ssS'STABLER FRANK'
p208
(dp209
g3
L239502L
sg4
F383.0
sg5
F0.0
sg6
L0L
sg7
L1112087L
sg8
L0L
sg9
L500000L
sg10
L0L
sg11
L0L
sg12
L511734L
sg13
L16514L
sg14
F0.0
sg15
L0L
sg16
F18.0
sg17
L356071L
sg18
F0.0
sg19
I00
sg20
L0L
sg21
F114.0
sg22
L511734L
sg23
L0L
ssS'SKILLING JEFFREY K'
p210
(dp211
g3
L1111258L
sg4
F3627.0
sg5
F0.2777777777777778
sg6
L0L
sg7
L8682716L
sg8
L0L
sg9
L5600000L
sg10
L1920000L
sg11
L0L
sg12
L26093672L
sg13
L29336L
sg14
F0.008271298593879239
sg15
L19250000L
sg16
F108.0
sg17
L22122L
sg18
F30.0
sg19
I01
sg20
L0L
sg21
F2042.0
sg22
L6843672L
sg23
L0L
ssS'BLAKE JR. NORMAN P'
p212
(dp213
g3
L0L
sg4
F383.0
sg5
F0.0
sg6
L0L
sg7
L1279L
sg8
L0L
sg9
L0L
sg10
L0L
sg11
L0L
sg12
L0L
sg13
L1279L
sg14
F0.0
sg15
L0L
sg16
F18.0
sg17
L0L
sg18
F0.0
sg19
I00
sg20
L-113784L
sg21
F114.0
sg22
L0L
sg23
L113784L
ssS'SHERRICK JEFFREY B'
p214
(dp215
g3
L0L
sg4
F613.0
sg5
F0.72
sg6
L0L
sg7
L0L
sg8
L0L
sg9
L0L
sg10
L0L
sg11
L0L
sg12
L1832468L
sg13
L0L
sg14
F0.02936378466557912
sg15
L1426469L
sg16
F25.0
sg17
L0L
sg18
F18.0
sg19
I00
sg20
L0L
sg21
F583.0
sg22
L405999L
sg23
L0L
ssS'PRENTICE JAMES'
p216
(dp217
g3
L0L
sg4
F383.0
sg5
F0.0
sg6
L564348L
sg7
L564348L
sg8
L0L
sg9
L0L
sg10
L0L
sg11
L0L
sg12
L1095040L
sg13
L0L
sg14
F0.0
sg15
L886231L
sg16
F18.0
sg17
L0L
sg18
F0.0
sg19
I00
sg20
L0L
sg21
F114.0
sg22
L208809L
sg23
L0L
ssS'GRAY RODNEY'
p218
(dp219
g3
L6615L
sg4
F383.0
sg5
F0.0
sg6
L93585L
sg7
L1146658L
sg8
L0L
sg9
L0L
sg10
L365625L
sg11
L0L
sg12
L0L
sg13
L0L
sg14
F0.0
sg15
L0L
sg16
F18.0
sg17
L680833L
sg18
F0.0
sg19
I00
sg20
L0L
sg21
F114.0
sg22
L0L
sg23
L0L
ssS'PICKERING MARK R'
p220
(dp221
g3
L655037L
sg4
F898.0
sg5
F0.0
sg6
L0L
sg7
L1386690L
sg8
L400000L
sg9
L300000L
sg10
L0L
sg11
L0L
sg12
L28798L
sg13
L31653L
sg14
F0.0
sg15
L28798L
sg16
F67.0
sg17
L0L
sg18
F0.0
sg19
I00
sg20
L0L
sg21
F728.0
sg22
L0L
sg23
L0L
ssS'NOLES JAMES L'
p222
(dp223
g3
L0L
sg4
F383.0
sg5
F0.0
sg6
L774401L
sg7
L774401L
sg8
L0L
sg9
L0L
sg10
L0L
sg11
L-94556L
sg12
L368705L
sg13
L0L
sg14
F0.0
sg15
L0L
sg16
F18.0
sg17
L0L
sg18
F0.0
sg19
I00
sg20
L0L
sg21
F114.0
sg22
L463261L
sg23
L0L
ssS'KEAN STEVEN J'
p224
(dp225
g3
L404338L
sg4
F12754.0
sg5
F0.05725699067909454
sg6
L0L
sg7
L1747522L
sg8
L0L
sg9
L1000000L
sg10
L300000L
sg11
L0L
sg12
L6153642L
sg13
L41953L
sg14
F0.03034342167163243
sg15
L2022048L
sg16
F6759.0
sg17
L1231L
sg18
F387.0
sg19
I00
sg20
L0L
sg21
F3639.0
sg22
L4131594L
sg23
L0L
ssS'FOWLER PEGGY'
p226
(dp227
g3
L0L
sg4
F517.0
sg5
F0.0
sg6
L0L
sg7
L0L
sg8
L0L
sg9
L0L
sg10
L0L
sg11
L0L
sg12
L1884748L
sg13
L0L
sg14
F0.0
sg15
L1324578L
sg16
F36.0
sg17
L0L
sg18
F0.0
sg19
I00
sg20
L0L
sg21
F10.0
sg22
L560170L
sg23
L0L
ssS'WASAFF GEORGE'
p228
(dp229
g3
L259996L
sg4
F400.0
sg5
F0.23333333333333334
sg6
L831299L
sg7
L1034395L
sg8
L0L
sg9
L325000L
sg10
L200000L
sg11
L0L
sg12
L2056427L
sg13
L0L
sg14
F0.0175
sg15
L1668260L
sg16
F30.0
sg17
L1425L
sg18
F7.0
sg19
I00
sg20
L-583325L
sg21
F337.0
sg22
L388167L
sg23
L0L
ssS'WHITE JR THOMAS E'
p230
(dp231
g3
L317543L
sg4
F383.0
sg5
F0.0
sg6
L0L
sg7
L1934359L
sg8
L0L
sg9
L450000L
sg10
L0L
sg11
L0L
sg12
L15144123L
sg13
L81353L
sg14
F0.0
sg15
L1297049L
sg16
F18.0
sg17
L1085463L
sg18
F0.0
sg19
I00
sg20
L0L
sg21
F114.0
sg22
L13847074L
sg23
L0L
ssS'CHRISTODOULOU DIOMEDES'
p232
(dp233
g3
L0L
sg4
F383.0
sg5
F0.0
sg6
L0L
sg7
L0L
sg8
L0L
sg9
L0L
sg10
L0L
sg11
L0L
sg12
L6077885L
sg13
L0L
sg14
F0.0
sg15
L5127155L
sg16
F18.0
sg17
L0L
sg18
F0.0
sg19
I00
sg20
L0L
sg21
F114.0
sg22
L950730L
sg23
L0L
ssS'ALLEN PHILLIP K'
p234
(dp235
g3
L201955L
sg4
F2902.0
sg5
F0.029612756264236904
sg6
L2869717L
sg7
L4484442L
sg8
L0L
sg9
L4175000L
sg10
L304805L
sg11
L-126027L
sg12
L1729541L
sg13
L13868L
sg14
F0.022398345968297727
sg15
L1729541L
sg16
F2195.0
sg17
L152L
sg18
F65.0
sg19
I00
sg20
L-3081055L
sg21
F1407.0
sg22
L126027L
sg23
L0L
ssS'SHARP VICTORIA T'
p236
(dp237
g3
L248146L
sg4
F3136.0
sg5
F0.04411764705882353
sg6
L187469L
sg7
L1576511L
sg8
L0L
sg9
L600000L
sg10
L422158L
sg11
L0L
sg12
L494136L
sg13
L116337L
sg14
F0.001913265306122449
sg15
L281073L
sg16
F136.0
sg17
L2401L
sg18
F6.0
sg19
I00
sg20
L0L
sg21
F2477.0
sg22
L213063L
sg23
L0L
ssS'JAEDICKE ROBERT'
p238
(dp239
g3
L0L
sg4
F383.0
sg5
F0.0
sg6
L0L
sg7
L83750L
sg8
L0L
sg9
L0L
sg10
L0L
sg11
L-44093L
sg12
L431750L
sg13
L0L
sg14
F0.0
sg15
L431750L
sg16
F18.0
sg17
L0L
sg18
F0.0
sg19
I00
sg20
L-25000L
sg21
F114.0
sg22
L44093L
sg23
L108750L
ssS'WINOKUR JR. HERBERT S'
p240
(dp241
g3
L0L
sg4
F383.0
sg5
F0.0
sg6
L0L
sg7
L84992L
sg8
L0L
sg9
L0L
sg10
L0L
sg11
L0L
sg12
L0L
sg13
L1413L
sg14
F0.0
sg15
L0L
sg16
F18.0
sg17
L0L
sg18
F0.0
sg19
I00
sg20
L-25000L
sg21
F114.0
sg22
L0L
sg23
L108579L
ssS'BROWN MICHAEL'
p242
(dp243
g3
L0L
sg4
F1486.0
sg5
F0.024390243902439025
sg6
L0L
sg7
L49288L
sg8
L0L
sg9
L0L
sg10
L0L
sg11
L0L
sg12
L0L
sg13
L49288L
sg14
F0.0006729475100942127
sg15
L0L
sg16
F41.0
sg17
L0L
sg18
F1.0
sg19
I00
sg20
L0L
sg21
F761.0
sg22
L0L
sg23
L0L
ssS'BADUM JAMES P'
p244
(dp245
g3
L0L
sg4
F383.0
sg5
F0.0
sg6
L178980L
sg7
L182466L
sg8
L0L
sg9
L0L
sg10
L0L
sg11
L0L
sg12
L257817L
sg13
L3486L
sg14
F0.0
sg15
L257817L
sg16
F18.0
sg17
L0L
sg18
F0.0
sg19
I00
sg20
L0L
sg21
F114.0
sg22
L0L
sg23
L0L
ssS'HUGHES JAMES A'
p246
(dp247
g3
L0L
sg4
F719.0
sg5
F0.14705882352941177
sg6
L0L
sg7
L0L
sg8
L0L
sg9
L0L
sg10
L0L
sg11
L0L
sg12
L1118394L
sg13
L0L
sg14
F0.006954102920723227
sg15
L754966L
sg16
F34.0
sg17
L0L
sg18
F5.0
sg19
I00
sg20
L0L
sg21
F589.0
sg22
L363428L
sg23
L0L
ssS'REYNOLDS LAWRENCE'
p248
(dp249
g3
L76399L
sg4
F383.0
sg5
F0.0
sg6
L51365L
sg7
L394475L
sg8
L0L
sg9
L100000L
sg10
L156250L
sg11
L-140264L
sg12
L4221891L
sg13
L8409L
sg14
F0.0
sg15
L4160672L
sg16
F18.0
sg17
L202052L
sg18
F0.0
sg19
I00
sg20
L-200000L
sg21
F114.0
sg22
L201483L
sg23
L0L
ssS'DIMICHELE RICHARD G'
p250
(dp251
g3
L262788L
sg4
F383.0
sg5
F0.0
sg6
L0L
sg7
L2368151L
sg8
L0L
sg9
L1000000L
sg10
L694862L
sg11
L0L
sg12
L8317782L
sg13
L35812L
sg14
F0.0
sg15
L8191755L
sg16
F18.0
sg17
L374689L
sg18
F0.0
sg19
I00
sg20
L0L
sg21
F114.0
sg22
L126027L
sg23
L0L
ssS'BHATNAGAR SANJAY'
p252
(dp253
g3
L0L
sg4
F523.0
sg5
F0.034482758620689655
sg6
L0L
sg7
L15456290L
sg8
L0L
sg9
L0L
sg10
L0L
sg11
L15456290L
sg12
L0L
sg13
L0L
sg14
F0.0019120458891013384
sg15
L2604490L
sg16
F29.0
sg17
L137864L
sg18
F1.0
sg19
I00
sg20
L0L
sg21
F463.0
sg22
L-2604490L
sg23
L137864L
ssS'CARTER REBECCA C'
p254
(dp255
g3
L261809L
sg4
F312.0
sg5
F0.4666666666666667
sg6
L0L
sg7
L477557L
sg8
L0L
sg9
L300000L
sg10
L75000L
sg11
L-307301L
sg12
L0L
sg13
L0L
sg14
F0.022435897435897436
sg15
L0L
sg16
F15.0
sg17
L540L
sg18
F7.0
sg19
I00
sg20
L-159792L
sg21
F196.0
sg22
L307301L
sg23
L0L
ssS'BUCHANAN HAROLD G'
p256
(dp257
g3
L248017L
sg4
F1088.0
sg5
F0.0
sg6
L0L
sg7
L1054637L
sg8
L0L
sg9
L500000L
sg10
L304805L
sg11
L0L
sg12
L1014505L
sg13
L600L
sg14
F0.0
sg15
L825464L
sg16
F125.0
sg17
L1215L
sg18
F0.0
sg19
I00
sg20
L0L
sg21
F23.0
sg22
L189041L
sg23
L0L
ssS'YEAP SOON'
p258
(dp259
g3
L0L
sg4
F383.0
sg5
F0.0
sg6
L0L
sg7
L55097L
sg8
L0L
sg9
L0L
sg10
L0L
sg11
L0L
sg12
L192758L
sg13
L55097L
sg14
F0.0
sg15
L192758L
sg16
F18.0
sg17
L0L
sg18
F0.0
sg19
I00
sg20
L0L
sg21
F114.0
sg22
L0L
sg23
L0L
ssS'MURRAY JULIA H'
p260
(dp261
g3
L229284L
sg4
F2192.0
sg5
F0.044444444444444446
sg6
L0L
sg7
L812194L
sg8
L0L
sg9
L400000L
sg10
L125000L
sg11
L0L
sg12
L597461L
sg13
L57580L
sg14
F0.0009124087591240876
sg15
L400478L
sg16
F45.0
sg17
L330L
sg18
F2.0
sg19
I00
sg20
L0L
sg21
F395.0
sg22
L196983L
sg23
L0L
ssS'GARLAND C KEVIN'
p262
(dp263
g3
L231946L
sg4
F209.0
sg5
F0.6136363636363636
sg6
L0L
sg7
L1566469L
sg8
L0L
sg9
L850000L
sg10
L375304L
sg11
L0L
sg12
L896153L
sg13
L48405L
sg14
F0.1291866028708134
sg15
L636246L
sg16
F44.0
sg17
L60814L
sg18
F27.0
sg19
I00
sg20
L0L
sg21
F178.0
sg22
L259907L
sg23
L0L
ssS'DODSON KEITH'
p264
(dp265
g3
L221003L
sg4
F176.0
sg5
F0.21428571428571427
sg6
L0L
sg7
L319941L
sg8
L0L
sg9
L70000L
sg10
L0L
sg11
L0L
sg12
L0L
sg13
L28164L
sg14
F0.017045454545454544
sg15
L0L
sg16
F14.0
sg17
L774L
sg18
F3.0
sg19
I00
sg20
L0L
sg21
F114.0
sg22
L0L
sg23
L0L
ssS'YEAGER F SCOTT'
p266
(dp267
g3
L158403L
sg4
F383.0
sg5
F0.0
sg6
L0L
sg7
L360300L
sg8
L0L
sg9
L0L
sg10
L0L
sg11
L0L
sg12
L11884758L
sg13
L53947L
sg14
F0.0
sg15
L8308552L
sg16
F18.0
sg17
L147950L
sg18
F0.0
sg19
I01
sg20
L0L
sg21
F114.0
sg22
L3576206L
sg23
L0L
ssS'HIRKO JOSEPH'
p268
(dp269
g3
L0L
sg4
F383.0
sg5
F0.0
sg6
L10259L
sg7
L91093L
sg8
L0L
sg9
L0L
sg10
L0L
sg11
L0L
sg12
L30766064L
sg13
L77978L
sg14
F0.0
sg15
L30766064L
sg16
F18.0
sg17
L2856L
sg18
F0.0
sg19
I01
sg20
L0L
sg21
F114.0
sg22
L0L
sg23
L0L
ssS'DIETRICH JANET R'
p270
(dp271
g3
L250100L
sg4
F2572.0
sg5
F0.2222222222222222
sg6
L0L
sg7
L1410464L
sg8
L0L
sg9
L600000L
sg10
L556416L
sg11
L0L
sg12
L1865087L
sg13
L3475L
sg14
F0.005443234836702955
sg15
L1550019L
sg16
F63.0
sg17
L473L
sg18
F14.0
sg19
I00
sg20
L0L
sg21
F1902.0
sg22
L315068L
sg23
L0L
ssS'DERRICK JR. JAMES V'
p272
(dp273
g3
L492375L
sg4
F2181.0
sg5
F0.022002200220022004
sg6
L0L
sg7
L550981L
sg8
L0L
sg9
L800000L
sg10
L484000L
sg11
L-1787380L
sg12
L8831913L
sg13
L51124L
sg14
F0.009170105456212746
sg15
L8831913L
sg16
F909.0
sg17
L7482L
sg18
F20.0
sg19
I00
sg20
L-1284000L
sg21
F1401.0
sg22
L1787380L
sg23
L0L
ssS'FREVERT MARK A'
p274
(dp275
g3
L1060932L
sg4
F3275.0
sg5
F0.2857142857142857
sg6
L6426990L
sg7
L17252530L
sg8
L2000000L
sg9
L2000000L
sg10
L1617011L
sg11
L0L
sg12
L14622185L
sg13
L86987L
sg14
F0.00183206106870229
sg15
L10433518L
sg16
F21.0
sg17
L7427621L
sg18
F6.0
sg19
I00
sg20
L-3367011L
sg21
F2979.0
sg22
L4188667L
sg23
L0L
ssS'PAI LOU L'
p276
(dp277
g3
L261879L
sg4
F383.0
sg5
F0.0
sg6
L0L
sg7
L3123383L
sg8
L0L
sg9
L1000000L
sg10
L0L
sg11
L0L
sg12
L23817930L
sg13
L32047L
sg14
F0.0
sg15
L15364167L
sg16
F18.0
sg17
L1829457L
sg18
F0.0
sg19
I00
sg20
L0L
sg21
F114.0
sg22
L8453763L
sg23
L0L
ssS'BAY FRANKLIN R'
p278
(dp279
g3
L239671L
sg4
F383.0
sg5
F0.0
sg6
L260455L
sg7
L827696L
sg8
L0L
sg9
L400000L
sg10
L0L
sg11
L-82782L
sg12
L63014L
sg13
L129142L
sg14
F0.0
sg15
L0L
sg16
F18.0
sg17
L69L
sg18
F0.0
sg19
I00
sg20
L-201641L
sg21
F114.0
sg22
L145796L
sg23
L0L
ssS'HAYSLETT RODERICK J'
p280
(dp281
g3
L0L
sg4
F2649.0
sg5
F0.03581526861451461
sg6
L0L
sg7
L0L
sg8
L0L
sg9
L0L
sg10
L0L
sg11
L0L
sg12
L346663L
sg13
L0L
sg14
F0.014345035862589657
sg15
L0L
sg16
F1061.0
sg17
L0L
sg18
F38.0
sg19
I00
sg20
L0L
sg21
F571.0
sg22
L346663L
sg23
L0L
ssS'FUGH JOHN L'
p282
(dp283
g3
L0L
sg4
F383.0
sg5
F0.0
sg6
L50591L
sg7
L50591L
sg8
L0L
sg9
L0L
sg10
L0L
sg11
L0L
sg12
L176378L
sg13
L0L
sg14
F0.0
sg15
L176378L
sg16
F18.0
sg17
L0L
sg18
F0.0
sg19
I00
sg20
L0L
sg21
F114.0
sg22
L0L
sg23
L0L
ssS'FALLON JAMES B'
p284
(dp285
g3
L304588L
sg4
F1755.0
sg5
F0.49333333333333335
sg6
L0L
sg7
L3676340L
sg8
L0L
sg9
L2500000L
sg10
L374347L
sg11
L0L
sg12
L2332399L
sg13
L95924L
sg14
F0.021082621082621083
sg15
L940257L
sg16
F75.0
sg17
L401481L
sg18
F37.0
sg19
I00
sg20
L0L
sg21
F1604.0
sg22
L1392142L
sg23
L0L
ssS'KOENIG MARK E'
p286
(dp287
g3
L309946L
sg4
F2374.0
sg5
F0.2459016393442623
sg6
L0L
sg7
L1587421L
sg8
L0L
sg9
L700000L
sg10
L300000L
sg11
L0L
sg12
L1920055L
sg13
L127017L
sg14
F0.006318449873631003
sg15
L671737L
sg16
F61.0
sg17
L150458L
sg18
F15.0
sg19
I01
sg20
L0L
sg21
F2271.0
sg22
L1248318L
sg23
L0L
ssS'SAVAGE FRANK'
p288
(dp289
g3
L0L
sg4
F383.0
sg5
F0.0
sg6
L0L
sg7
L3750L
sg8
L0L
sg9
L0L
sg10
L0L
sg11
L0L
sg12
L0L
sg13
L0L
sg14
F0.0
sg15
L0L
sg16
F18.0
sg17
L0L
sg18
F0.0
sg19
I00
sg20
L-121284L
sg21
F114.0
sg22
L0L
sg23
L125034L
ssS'IZZO LAWRENCE L'
p290
(dp291
g3
L85274L
sg4
F496.0
sg5
F0.2631578947368421
sg6
L0L
sg7
L1979596L
sg8
L0L
sg9
L0L
sg10
L312500L
sg11
L0L
sg12
L5819980L
sg13
L28093L
sg14
F0.010080645161290322
sg15
L2165172L
sg16
F19.0
sg17
L1553729L
sg18
F5.0
sg19
I00
sg20
L0L
sg21
F437.0
sg22
L3654808L
sg23
L0L
ssS'TILNEY ELIZABETH A'
p292
(dp293
g3
L247338L
sg4
F460.0
sg5
F0.5789473684210527
sg6
L0L
sg7
L399393L
sg8
L0L
sg9
L300000L
sg10
L275000L
sg11
L0L
sg12
L1168042L
sg13
L0L
sg14
F0.02391304347826087
sg15
L591250L
sg16
F19.0
sg17
L152055L
sg18
F11.0
sg19
I00
sg20
L-575000L
sg21
F379.0
sg22
L576792L
sg23
L0L
ssS'MARTIN AMANDA K'
p294
(dp295
g3
L349487L
sg4
F1522.0
sg5
F0.0
sg6
L85430L
sg7
L8407016L
sg8
L0L
sg9
L0L
sg10
L5145434L
sg11
L0L
sg12
L2070306L
sg13
L8211L
sg14
F0.0
sg15
L2070306L
sg16
F230.0
sg17
L2818454L
sg18
F0.0
sg19
I00
sg20
L0L
sg21
F477.0
sg22
L0L
sg23
L0L
ssS'BUY RICHARD B'
p296
(dp297
g3
L330546L
sg4
F3523.0
sg5
F0.06742640075973409
sg6
L649584L
sg7
L2355702L
sg8
L0L
sg9
L900000L
sg10
L769862L
sg11
L0L
sg12
L3444470L
sg13
L0L
sg14
F0.02015327845586148
sg15
L2542813L
sg16
F1053.0
sg17
L400572L
sg18
F71.0
sg19
I00
sg20
L-694862L
sg21
F2333.0
sg22
L901657L
sg23
L0L
ssS'GRAMM WENDY L'
p298
(dp299
g3
L0L
sg4
F383.0
sg5
F0.0
sg6
L0L
sg7
L119292L
sg8
L0L
sg9
L0L
sg10
L0L
sg11
L0L
sg12
L0L
sg13
L0L
sg14
F0.0
sg15
L0L
sg16
F18.0
sg17
L0L
sg18
F0.0
sg19
I00
sg20
L0L
sg21
F114.0
sg22
L0L
sg23
L119292L
ssS'CAUSEY RICHARD A'
p300
(dp301
g3
L415189L
sg4
F1892.0
sg5
F0.24489795918367346
sg6
L0L
sg7
L1868758L
sg8
L0L
sg9
L1000000L
sg10
L350000L
sg11
L0L
sg12
L2502063L
sg13
L30674L
sg14
F0.006342494714587738
sg15
L0L
sg16
F49.0
sg17
L307895L
sg18
F12.0
sg19
I01
sg20
L-235000L
sg21
F1585.0
sg22
L2502063L
sg23
L0L
ssS'TAYLOR MITCHELL S'
p302
(dp303
g3
L265214L
sg4
F533.0
sg5
F0.0
sg6
L227449L
sg7
L1092663L
sg8
L0L
sg9
L600000L
sg10
L0L
sg11
L0L
sg12
L3745048L
sg13
L0L
sg14
F0.0
sg15
L3181250L
sg16
F29.0
sg17
L0L
sg18
F0.0
sg19
I00
sg20
L0L
sg21
F300.0
sg22
L563798L
sg23
L0L
ssS'DONAHUE JR JEFFREY M'
p304
(dp305
g3
L278601L
sg4
F865.0
sg5
F0.5
sg6
L0L
sg7
L875760L
sg8
L0L
sg9
L800000L
sg10
L0L
sg11
L0L
sg12
L1080988L
sg13
L96268L
sg14
F0.012716763005780347
sg15
L765920L
sg16
F22.0
sg17
L891L
sg18
F11.0
sg19
I00
sg20
L-300000L
sg21
F772.0
sg22
L315068L
sg23
L0L
ssS'GLISAN JR BEN F'
p306
(dp307
g3
L274975L
sg4
F873.0
sg5
F0.375
sg6
L0L
sg7
L1272284L
sg8
L0L
sg9
L600000L
sg10
L71023L
sg11
L0L
sg12
L778546L
sg13
L125978L
sg14
F0.006872852233676976
sg15
L384728L
sg16
F16.0
sg17
L200308L
sg18
F6.0
sg19
I01
sg20
L0L
sg21
F874.0
sg22
L393818L
sg23
L0L
ss.