(dp0
S'METTS MARK'
p1
(dp2
S'to_messages'
p3
F807.0
sS'deferral_payments'
p4
L0L
sS'expenses'
p5
L94299L
sS'poi'
p6
I00
sS'long_term_incentive'
p7
L0L
sS'from_poi_to_this_person'
p8
F38.0
sS'from_poi_to_this_person_ratio'
p9
F0.04708798017348203
sS'deferred_income'
p10
L0L
sS'restricted_stock_deferred'
p11
L0L
sS'shared_receipt_with_poi'
p12
F702.0
sS'loan_advances'
p13
L0L
sS'from_messages'
p14
F29.0
sS'other'
p15
L1740L
sS'director_fees'
p16
L0L
sS'bonus'
p17
L600000L
sS'total_stock_value'
p18
L585062L
sS'from_this_person_to_poi'
p19
F1.0
sS'restricted_stock'
p20
L585062L
sS'salary'
p21
L365788L
sS'total_payments'
p22
L1061827L
sS'exercised_stock_options'
p23
L0L
sS'from_this_person_to_poi_ratio'
p24
F0.034482758620689655
ssS'BAXTER JOHN C'
p25
(dp26
g3
F383.0
sg4
L1295738L
sg5
L11200L
sg6
I00
sg7
L1586055L
sg8
F4.0
sg9
F0.0
sg10
L-1386055L
sg11
L0L
sg12
F114.0
sg13
L0L
sg14
F18.0
sg15
L2660303L
sg16
L0L
sg17
L1200000L
sg18
L10623258L
sg19
F0.0
sg20
L3942714L
sg21
L267102L
sg22
L5634343L
sg23
L6680544L
sg24
F0.0
ssS'ELLIOTT STEVEN'
p27
(dp28
g3
F383.0
sg4
L0L
sg5
L78552L
sg6
I00
sg7
L0L
sg8
F4.0
sg9
F0.0
sg10
L-400729L
sg11
L0L
sg12
F114.0
sg13
L0L
sg14
F18.0
sg15
L12961L
sg16
L0L
sg17
L350000L
sg18
L6678735L
sg19
F0.0
sg20
L1788391L
sg21
L170941L
sg22
L211725L
sg23
L4890344L
sg24
F0.0
ssS'CORDES WILLIAM R'
p29
(dp30
g3
F764.0
sg4
L0L
sg5
L0L
sg6
I00
sg7
L0L
sg8
F10.0
sg9
F0.013089005235602094
sg10
L0L
sg11
L0L
sg12
F58.0
sg13
L0L
sg14
F12.0
sg15
L0L
sg16
L0L
sg17
L0L
sg18
L1038185L
sg19
F0.0
sg20
L386335L
sg21
L0L
sg22
L0L
sg23
L651850L
sg24
F0.0
ssS'HANNON KEVIN P'
p31
(dp32
g3
F1045.0
sg4
L0L
sg5
L34039L
sg6
I01
sg7
L1617011L
sg8
F32.0
sg9
F0.03062200956937799
sg10
L-3117011L
sg11
L0L
sg12
F1035.0
sg13
L0L
sg14
F32.0
sg15
L11350L
sg16
L0L
sg17
L1500000L
sg18
L6391065L
sg19
F21.0
sg20
L853064L
sg21
L243293L
sg22
L288682L
sg23
L5538001L
sg24
F0.65625
ssS'MORDAUNT KRISTINA M'
p33
(dp34
g3
F383.0
sg4
L0L
sg5
L35018L
sg6
I00
sg7
L0L
sg8
F4.0
sg9
F0.0
sg10
L0L
sg11
L0L
sg12
F114.0
sg13
L0L
sg14
F18.0
sg15
L1411L
sg16
L0L
sg17
L325000L
sg18
L208510L
sg19
F0.0
sg20
L208510L
sg21
L267093L
sg22
L628522L
sg23
L0L
sg24
F0.0
ssS'MEYER ROCKFORD G'
p35
(dp36
g3
F232.0
sg4
L1848227L
sg5
L0L
sg6
I00
sg7
L0L
sg8
F4.0
sg9
F0.0
sg10
L0L
sg11
L0L
sg12
F22.0
sg13
L0L
sg14
F28.0
sg15
L0L
sg16
L0L
sg17
L0L
sg18
L955873L
sg19
F0.0
sg20
L462384L
sg21
L0L
sg22
L1848227L
sg23
L493489L
sg24
F0.0
ssS'MCMAHON JEFFREY'
p37
(dp38
g3
F2355.0
sg4
L0L
sg5
L137108L
sg6
I00
sg7
L694862L
sg8
F58.0
sg9
F0.024628450106157114
sg10
L0L
sg11
L0L
sg12
F2228.0
sg13
L0L
sg14
F48.0
sg15
L297353L
sg16
L0L
sg17
L2600000L
sg18
L1662855L
sg19
F26.0
sg20
L558801L
sg21
L370448L
sg22
L4099771L
sg23
L1104054L
sg24
F0.5416666666666666
ssS'HORTON STANLEY C'
p39
(dp40
g3
F2350.0
sg4
L3131860L
sg5
L0L
sg6
I00
sg7
L0L
sg8
F44.0
sg9
F0.01872340425531915
sg10
L0L
sg11
L0L
sg12
F1074.0
sg13
L0L
sg14
F1073.0
sg15
L0L
sg16
L0L
sg17
L0L
sg18
L7256648L
sg19
F15.0
sg20
L2046079L
sg21
L0L
sg22
L3131860L
sg23
L5210569L
sg24
F0.013979496738117428
ssS'PIPER GREGORY F'
p41
(dp42
g3
F1238.0
sg4
L1130036L
sg5
L43057L
sg6
I00
sg7
L0L
sg8
F61.0
sg9
F0.049273021001615507
sg10
L-33333L
sg11
L-409554L
sg12
F742.0
sg13
L0L
sg14
F222.0
sg15
L778L
sg16
L0L
sg17
L400000L
sg18
L880290L
sg19
F48.0
sg20
L409554L
sg21
L197091L
sg22
L1737629L
sg23
L880290L
sg24
F0.21621621621621623
ssS'HUMPHREY GENE E'
p43
(dp44
g3
F128.0
sg4
L2964506L
sg5
L4994L
sg6
I00
sg7
L0L
sg8
F10.0
sg9
F0.078125
sg10
L0L
sg11
L0L
sg12
F119.0
sg13
L0L
sg14
F17.0
sg15
L0L
sg16
L0L
sg17
L0L
sg18
L2282768L
sg19
F17.0
sg20
L0L
sg21
L130724L
sg22
L3100224L
sg23
L2282768L
sg24
F1.0
ssS'UMANOFF ADAM S'
p45
(dp46
g3
F111.0
sg4
L0L
sg5
L53122L
sg6
I00
sg7
L0L
sg8
F12.0
sg9
F0.10810810810810811
sg10
L0L
sg11
L0L
sg12
F41.0
sg13
L0L
sg14
F18.0
sg15
L0L
sg16
L0L
sg17
L788750L
sg18
L0L
sg19
F0.0
sg20
L0L
sg21
L288589L
sg22
L1130461L
sg23
L0L
sg24
F0.0
ssS'BLACHMAN JEREMY M'
p47
(dp48
g3
F2475.0
sg4
L0L
sg5
L84208L
sg6
I00
sg7
L831809L
sg8
F25.0
sg9
F0.010101010101010102
sg10
L0L
sg11
L0L
sg12
F2326.0
sg13
L0L
sg14
F14.0
sg15
L272L
sg16
L0L
sg17
L850000L
sg18
L954354L
sg19
F2.0
sg20
L189041L
sg21
L248546L
sg22
L2014835L
sg23
L765313L
sg24
F0.14285714285714285
ssS'SUNDE MARTIN'
p49
(dp50
g3
F2647.0
sg4
L0L
sg5
L0L
sg6
I00
sg7
L476451L
sg8
F37.0
sg9
F0.013978088401964487
sg10
L0L
sg11
L0L
sg12
F2565.0
sg13
L0L
sg14
F38.0
sg15
L111122L
sg16
L0L
sg17
L700000L
sg18
L698920L
sg19
F13.0
sg20
L698920L
sg21
L257486L
sg22
L1545059L
sg23
L0L
sg24
F0.34210526315789475
ssS'GIBBS DANA R'
p51
(dp52
g3
F169.0
sg4
L504610L
sg5
L0L
sg6
I00
sg7
L461912L
sg8
F4.0
sg9
F0.0
sg10
L0L
sg11
L0L
sg12
F23.0
sg13
L0L
sg14
F12.0
sg15
L0L
sg16
L0L
sg17
L0L
sg18
L2218275L
sg19
F0.0
sg20
L0L
sg21
L0L
sg22
L966522L
sg23
L2218275L
sg24
F0.0
ssS'LOWRY CHARLES P'
p53
(dp54
g3
F383.0
sg4
L0L
sg5
L0L
sg6
I00
sg7
L0L
sg8
F4.0
sg9
F0.0
sg10
L0L
sg11
L-153686L
sg12
F114.0
sg13
L0L
sg14
F18.0
sg15
L0L
sg16
L0L
sg17
L0L
sg18
L372205L
sg19
F0.0
sg20
L153686L
sg21
L0L
sg22
L0L
sg23
L372205L
sg24
F0.0
ssS'COLWELL WESLEY'
p55
(dp56
g3
F1758.0
sg4
L27610L
sg5
L16514L
sg6
I01
sg7
L0L
sg8
F240.0
sg9
F0.13651877133105803
sg10
L-144062L
sg11
L0L
sg12
F1132.0
sg13
L0L
sg14
F40.0
sg15
L101740L
sg16
L0L
sg17
L1200000L
sg18
L698242L
sg19
F11.0
sg20
L698242L
sg21
L288542L
sg22
L1490344L
sg23
L0L
sg24
F0.275
ssS'MULLER MARK S'
p57
(dp58
g3
F136.0
sg4
L842924L
sg5
L0L
sg6
I00
sg7
L1725545L
sg8
F12.0
sg9
F0.08823529411764706
sg10
L-719000L
sg11
L0L
sg12
F114.0
sg13
L0L
sg14
F16.0
sg15
L947L
sg16
L0L
sg17
L1100000L
sg18
L1416848L
sg19
F0.0
sg20
L360528L
sg21
L251654L
sg22
L3202070L
sg23
L1056320L
sg24
F0.0
ssS'JACKSON CHARLENE R'
p59
(dp60
g3
F258.0
sg4
L0L
sg5
L10181L
sg6
I00
sg7
L0L
sg8
F25.0
sg9
F0.09689922480620156
sg10
L0L
sg11
L0L
sg12
F117.0
sg13
L0L
sg14
F56.0
sg15
L2435L
sg16
L0L
sg17
L250000L
sg18
L725735L
sg19
F19.0
sg20
L540672L
sg21
L288558L
sg22
L551174L
sg23
L185063L
sg24
F0.3392857142857143
ssS'WESTFAHL RICHARD K'
p61
(dp62
g3
F383.0
sg4
L0L
sg5
L51870L
sg6
I00
sg7
L256191L
sg8
F4.0
sg9
F0.0
sg10
L-10800L
sg11
L0L
sg12
F114.0
sg13
L0L
sg14
F18.0
sg15
L401130L
sg16
L0L
sg17
L0L
sg18
L384930L
sg19
F0.0
sg20
L384930L
sg21
L63744L
sg22
L762135L
sg23
L0L
sg24
F0.0
ssS'WALTERS GARETH W'
p63
(dp64
g3
F383.0
sg4
L53625L
sg5
L33785L
sg6
I00
sg7
L0L
sg8
F4.0
sg9
F0.0
sg10
L0L
sg11
L0L
sg12
F114.0
sg13
L0L
sg14
F18.0
sg15
L0L
sg16
L0L
sg17
L0L
sg18
L1030329L
sg19
F0.0
sg20
L0L
sg21
L0L
sg22
L87410L
sg23
L1030329L
sg24
F0.0
ssS'WALLS JR ROBERT H'
p65
(dp66
g3
F671.0
sg4
L0L
sg5
L50936L
sg6
I00
sg7
L540751L
sg8
F17.0
sg9
F0.02533532041728763
sg10
L0L
sg11
L0L
sg12
F215.0
sg13
L0L
sg14
F146.0
sg15
L2L
sg16
L0L
sg17
L850000L
sg18
L5898997L
sg19
F0.0
sg20
L1552453L
sg21
L357091L
sg22
L1798780L
sg23
L4346544L
sg24
F0.0
ssS'KITCHEN LOUISE'
p67
(dp68
g3
F8305.0
sg4
L0L
sg5
L5774L
sg6
I00
sg7
L0L
sg8
F251.0
sg9
F0.030222757375075255
sg10
L0L
sg11
L0L
sg12
F3669.0
sg13
L0L
sg14
F1728.0
sg15
L93925L
sg16
L0L
sg17
L3100000L
sg18
L547143L
sg19
F194.0
sg20
L466101L
sg21
L271442L
sg22
L3471141L
sg23
L81042L
sg24
F0.11226851851851852
ssS'CHAN RONNIE'
p69
(dp70
g3
F383.0
sg4
L0L
sg5
L0L
sg6
I00
sg7
L0L
sg8
F4.0
sg9
F0.0
sg10
L-98784L
sg11
L-32460L
sg12
F114.0
sg13
L0L
sg14
F18.0
sg15
L0L
sg16
L98784L
sg17
L0L
sg18
L0L
sg19
F0.0
sg20
L32460L
sg21
L0L
sg22
L0L
sg23
L0L
sg24
F0.0
ssS'BELFER ROBERT'
p71
(dp72
g3
F383.0
sg4
L-102500L
sg5
L0L
sg6
I00
sg7
L0L
sg8
F4.0
sg9
F0.0
sg10
L0L
sg11
L44093L
sg12
F114.0
sg13
L0L
sg14
F18.0
sg15
L0L
sg16
L3285L
sg17
L0L
sg18
L-44093L
sg19
F0.0
sg20
L0L
sg21
L0L
sg22
L102500L
sg23
L3285L
sg24
F0.0
ssS'SHANKMAN JEFFREY A'
p73
(dp74
g3
F3221.0
sg4
L0L
sg5
L178979L
sg6
I00
sg7
L554422L
sg8
F94.0
sg9
F0.029183483390251473
sg10
L0L
sg11
L0L
sg12
F1730.0
sg13
L0L
sg14
F2681.0
sg15
L1191L
sg16
L0L
sg17
L2000000L
sg18
L2072035L
sg19
F83.0
sg20
L630137L
sg21
L304110L
sg22
L3038702L
sg23
L1441898L
sg24
F0.030958597538232
ssS'WODRASKA JOHN'
p75
(dp76
g3
F383.0
sg4
L0L
sg5
L0L
sg6
I00
sg7
L0L
sg8
F4.0
sg9
F0.0
sg10
L0L
sg11
L0L
sg12
F114.0
sg13
L0L
sg14
F18.0
sg15
L189583L
sg16
L0L
sg17
L0L
sg18
L0L
sg19
F0.0
sg20
L0L
sg21
L0L
sg22
L189583L
sg23
L0L
sg24
F0.0
ssS'BERGSIEKER RICHARD P'
p77
(dp78
g3
F383.0
sg4
L0L
sg5
L59175L
sg6
I00
sg7
L180250L
sg8
F4.0
sg9
F0.010443864229765013
sg10
L-485813L
sg11
L0L
sg12
F233.0
sg13
L0L
sg14
F59.0
sg15
L427316L
sg16
L0L
sg17
L250000L
sg18
L659249L
sg19
F0.0
sg20
L659249L
sg21
L187922L
sg22
L618850L
sg23
L0L
sg24
F0.0
ssS'URQUHART JOHN A'
p79
(dp80
g3
F383.0
sg4
L0L
sg5
L228656L
sg6
I00
sg7
L0L
sg8
F4.0
sg9
F0.0
sg10
L-36666L
sg11
L0L
sg12
F114.0
sg13
L0L
sg14
F18.0
sg15
L0L
sg16
L36666L
sg17
L0L
sg18
L0L
sg19
F0.0
sg20
L0L
sg21
L0L
sg22
L228656L
sg23
L0L
sg24
F0.0
ssS'BIBI PHILIPPE A'
p81
(dp82
g3
F1607.0
sg4
L0L
sg5
L38559L
sg6
I00
sg7
L369721L
sg8
F23.0
sg9
F0.01431238332296204
sg10
L0L
sg11
L0L
sg12
F1336.0
sg13
L0L
sg14
F40.0
sg15
L425688L
sg16
L0L
sg17
L1000000L
sg18
L1843816L
sg19
F8.0
sg20
L378082L
sg21
L213625L
sg22
L2047593L
sg23
L1465734L
sg24
F0.2
ssS'PIRO JIM'
p83
(dp84
g3
F58.0
sg4
L0L
sg5
L0L
sg6
I00
sg7
L0L
sg8
F4.0
sg9
F0.0
sg10
L0L
sg11
L0L
sg12
F3.0
sg13
L0L
sg14
F16.0
sg15
L0L
sg16
L0L
sg17
L0L
sg18
L47304L
sg19
F1.0
sg20
L47304L
sg21
L0L
sg22
L0L
sg23
L0L
sg24
F0.0625
ssS'RIEKER PAULA H'
p85
(dp86
g3
F1328.0
sg4
L214678L
sg5
L33271L
sg6
I01
sg7
L0L
sg8
F35.0
sg9
F0.02635542168674699
sg10
L-100000L
sg11
L0L
sg12
F1258.0
sg13
L0L
sg14
F82.0
sg15
L1950L
sg16
L0L
sg17
L700000L
sg18
L1918887L
sg19
F48.0
sg20
L283649L
sg21
L249201L
sg22
L1099100L
sg23
L1635238L
sg24
F0.5853658536585366
ssS'WHALEY DAVID A'
p87
(dp88
g3
F383.0
sg4
L0L
sg5
L0L
sg6
I00
sg7
L0L
sg8
F4.0
sg9
F0.0
sg10
L0L
sg11
L0L
sg12
F114.0
sg13
L0L
sg14
F18.0
sg15
L0L
sg16
L0L
sg17
L0L
sg18
L98718L
sg19
F0.0
sg20
L0L
sg21
L0L
sg22
L0L
sg23
L98718L
sg24
F0.0
ssS'BECK SALLY W'
p89
(dp90
g3
F7315.0
sg4
L0L
sg5
L37172L
sg6
I00
sg7
L0L
sg8
F144.0
sg9
F0.01968557758031442
sg10
L0L
sg11
L0L
sg12
F2639.0
sg13
L0L
sg14
F4343.0
sg15
L566L
sg16
L0L
sg17
L700000L
sg18
L126027L
sg19
F386.0
sg20
L126027L
sg21
L231330L
sg22
L969068L
sg23
L0L
sg24
F0.08887865530739121
ssS'HAUG DAVID L'
p91
(dp92
g3
F573.0
sg4
L0L
sg5
L475L
sg6
I00
sg7
L0L
sg8
F4.0
sg9
F0.006980802792321117
sg10
L0L
sg11
L0L
sg12
F471.0
sg13
L0L
sg14
F19.0
sg15
L0L
sg16
L0L
sg17
L0L
sg18
L2217299L
sg19
F7.0
sg20
L2217299L
sg21
L0L
sg22
L475L
sg23
L0L
sg24
F0.3684210526315789
ssS'ECHOLS JOHN B'
p93
(dp94
g3
F383.0
sg4
L0L
sg5
L21530L
sg6
I00
sg7
L2234774L
sg8
F4.0
sg9
F0.0
sg10
L0L
sg11
L0L
sg12
F114.0
sg13
L0L
sg14
F18.0
sg15
L53775L
sg16
L0L
sg17
L200000L
sg18
L1008941L
sg19
F0.0
sg20
L407503L
sg21
L182245L
sg22
L2692324L
sg23
L601438L
sg24
F0.0
ssS'MENDELSOHN JOHN'
p95
(dp96
g3
F383.0
sg4
L0L
sg5
L148L
sg6
I00
sg7
L0L
sg8
F4.0
sg9
F0.0
sg10
L-103750L
sg11
L0L
sg12
F114.0
sg13
L0L
sg14
F18.0
sg15
L0L
sg16
L103750L
sg17
L0L
sg18
L0L
sg19
F0.0
sg20
L0L
sg21
L0L
sg22
L148L
sg23
L0L
sg24
F0.0
ssS'HICKERSON GARY J'
p97
(dp98
g3
F1320.0
sg4
L0L
sg5
L98849L
sg6
I00
sg7
L69223L
sg8
F40.0
sg9
F0.030303030303030304
sg10
L0L
sg11
L0L
sg12
F900.0
sg13
L0L
sg14
F27.0
sg15
L1936L
sg16
L0L
sg17
L1700000L
sg18
L441096L
sg19
F1.0
sg20
L441096L
sg21
L211788L
sg22
L2081796L
sg23
L0L
sg24
F0.037037037037037035
ssS'CLINE KENNETH W'
p99
(dp100
g3
F383.0
sg4
L0L
sg5
L0L
sg6
I00
sg7
L0L
sg8
F4.0
sg9
F0.0
sg10
L0L
sg11
L-472568L
sg12
F114.0
sg13
L0L
sg14
F18.0
sg15
L0L
sg16
L0L
sg17
L0L
sg18
L189518L
sg19
F0.0
sg20
L662086L
sg21
L0L
sg22
L0L
sg23
L0L
sg24
F0.0
ssS'LEWIS RICHARD'
p101
(dp102
g3
F952.0
sg4
L0L
sg5
L0L
sg6
I00
sg7
L0L
sg8
F10.0
sg9
F0.01050420168067227
sg10
L0L
sg11
L0L
sg12
F739.0
sg13
L0L
sg14
F26.0
sg15
L0L
sg16
L0L
sg17
L0L
sg18
L850477L
sg19
F0.0
sg20
L0L
sg21
L0L
sg22
L0L
sg23
L850477L
sg24
F0.0
ssS'HAYES ROBERT E'
p103
(dp104
g3
F504.0
sg4
L7961L
sg5
L0L
sg6
I00
sg7
L0L
sg8
F16.0
sg9
F0.031746031746031744
sg10
L0L
sg11
L0L
sg12
F50.0
sg13
L0L
sg14
F12.0
sg15
L0L
sg16
L0L
sg17
L0L
sg18
L151418L
sg19
F0.0
sg20
L151418L
sg21
L0L
sg22
L7961L
sg23
L0L
sg24
F0.0
ssS'KOPPER MICHAEL J'
p105
(dp106
g3
F383.0
sg4
L0L
sg5
L118134L
sg6
I01
sg7
L602671L
sg8
F4.0
sg9
F0.0
sg10
L0L
sg11
L0L
sg12
F114.0
sg13
L0L
sg14
F18.0
sg15
L907502L
sg16
L0L
sg17
L800000L
sg18
L985032L
sg19
F0.0
sg20
L985032L
sg21
L224305L
sg22
L2652612L
sg23
L0L
sg24
F0.0
ssS'LEFF DANIEL P'
p107
(dp108
g3
F2822.0
sg4
L0L
sg5
L0L
sg6
I00
sg7
L1387399L
sg8
F67.0
sg9
F0.02374202693125443
sg10
L0L
sg11
L0L
sg12
F2672.0
sg13
L0L
sg14
F63.0
sg15
L3083L
sg16
L0L
sg17
L1000000L
sg18
L360528L
sg19
F14.0
sg20
L360528L
sg21
L273746L
sg22
L2664228L
sg23
L0L
sg24
F0.2222222222222222
ssS'LAVORATO JOHN J'
p109
(dp110
g3
F7259.0
sg4
L0L
sg5
L49537L
sg6
I00
sg7
L2035380L
sg8
F528.0
sg9
F0.07273729163796666
sg10
L0L
sg11
L0L
sg12
F3962.0
sg13
L0L
sg14
F2585.0
sg15
L1552L
sg16
L0L
sg17
L8000000L
sg18
L5167144L
sg19
F411.0
sg20
L1008149L
sg21
L339288L
sg22
L10425757L
sg23
L4158995L
sg24
F0.15899419729206962
ssS'BERBERIAN DAVID'
p111
(dp112
g3
F383.0
sg4
L0L
sg5
L11892L
sg6
I00
sg7
L0L
sg8
F4.0
sg9
F0.0
sg10
L0L
sg11
L0L
sg12
F114.0
sg13
L0L
sg14
F18.0
sg15
L0L
sg16
L0L
sg17
L0L
sg18
L2493616L
sg19
F0.0
sg20
L869220L
sg21
L216582L
sg22
L228474L
sg23
L1624396L
sg24
F0.0
ssS'DETMERING TIMOTHY J'
p113
(dp114
g3
F383.0
sg4
L875307L
sg5
L52255L
sg6
I00
sg7
L415657L
sg8
F4.0
sg9
F0.0
sg10
L-775241L
sg11
L-315068L
sg12
F114.0
sg13
L0L
sg14
F18.0
sg15
L1105L
sg16
L0L
sg17
L425000L
sg18
L2027865L
sg19
F0.0
sg20
L315068L
sg21
L210500L
sg22
L1204583L
sg23
L2027865L
sg24
F0.0
ssS'WAKEHAM JOHN'
p115
(dp116
g3
F383.0
sg4
L0L
sg5
L103773L
sg6
I00
sg7
L0L
sg8
F4.0
sg9
F0.0
sg10
L0L
sg11
L0L
sg12
F114.0
sg13
L0L
sg14
F18.0
sg15
L0L
sg16
L109298L
sg17
L0L
sg18
L0L
sg19
F0.0
sg20
L0L
sg21
L0L
sg22
L213071L
sg23
L0L
sg24
F0.0
ssS'POWERS WILLIAM'
p117
(dp118
g3
F653.0
sg4
L0L
sg5
L0L
sg6
I00
sg7
L0L
sg8
F4.0
sg9
F0.0
sg10
L-17500L
sg11
L0L
sg12
F12.0
sg13
L0L
sg14
F26.0
sg15
L0L
sg16
L17500L
sg17
L0L
sg18
L0L
sg19
F0.0
sg20
L0L
sg21
L0L
sg22
L0L
sg23
L0L
sg24
F0.0
ssS'GOLD JOSEPH'
p119
(dp120
g3
F383.0
sg4
L0L
sg5
L0L
sg6
I00
sg7
L304805L
sg8
F4.0
sg9
F0.0
sg10
L0L
sg11
L0L
sg12
F114.0
sg13
L0L
sg14
F18.0
sg15
L819288L
sg16
L0L
sg17
L750000L
sg18
L877611L
sg19
F0.0
sg20
L441096L
sg21
L272880L
sg22
L2146973L
sg23
L436515L
sg24
F0.0
ssS'BANNANTINE JAMES M'
p121
(dp122
g3
F566.0
sg4
L0L
sg5
L56301L
sg6
I00
sg7
L0L
sg8
F39.0
sg9
F0.06890459363957598
sg10
L-5104L
sg11
L-560222L
sg12
F465.0
sg13
L0L
sg14
F29.0
sg15
L864523L
sg16
L0L
sg17
L0L
sg18
L5243487L
sg19
F0.0
sg20
L1757552L
sg21
L477L
sg22
L916197L
sg23
L4046157L
sg24
F0.0
ssS'DUNCAN JOHN H'
p123
(dp124
g3
F383.0
sg4
L0L
sg5
L0L
sg6
I00
sg7
L0L
sg8
F4.0
sg9
F0.0
sg10
L-25000L
sg11
L0L
sg12
F114.0
sg13
L0L
sg14
F18.0
sg15
L0L
sg16
L102492L
sg17
L0L
sg18
L371750L
sg19
F0.0
sg20
L0L
sg21
L0L
sg22
L77492L
sg23
L371750L
sg24
F0.0
ssS'SHAPIRO RICHARD S'
p125
(dp126
g3
F15149.0
sg4
L0L
sg5
L137767L
sg6
I00
sg7
L0L
sg8
F74.0
sg9
F0.0048848108786058485
sg10
L0L
sg11
L0L
sg12
F4527.0
sg13
L0L
sg14
F1215.0
sg15
L705L
sg16
L0L
sg17
L650000L
sg18
L987001L
sg19
F65.0
sg20
L379164L
sg21
L269076L
sg22
L1057548L
sg23
L607837L
sg24
F0.053497942386831275
ssS'SHERRIFF JOHN R'
p127
(dp128
g3
F3187.0
sg4
L0L
sg5
L0L
sg6
I00
sg7
L554422L
sg8
F28.0
sg9
F0.008785691873235017
sg10
L0L
sg11
L0L
sg12
F2103.0
sg13
L0L
sg14
F92.0
sg15
L1852186L
sg16
L0L
sg17
L1500000L
sg18
L3128982L
sg19
F23.0
sg20
L1293424L
sg21
L428780L
sg22
L4335388L
sg23
L1835558L
sg24
F0.25
ssS'SHELBY REX'
p129
(dp130
g3
F225.0
sg4
L0L
sg5
L22884L
sg6
I01
sg7
L0L
sg8
F13.0
sg9
F0.057777777777777775
sg10
L-4167L
sg11
L0L
sg12
F91.0
sg13
L0L
sg14
F39.0
sg15
L1573324L
sg16
L0L
sg17
L200000L
sg18
L2493616L
sg19
F14.0
sg20
L869220L
sg21
L211844L
sg22
L2003885L
sg23
L1624396L
sg24
F0.358974358974359
ssS'LEMAISTRE CHARLES'
p131
(dp132
g3
F383.0
sg4
L0L
sg5
L0L
sg6
I00
sg7
L0L
sg8
F4.0
sg9
F0.0
sg10
L-25000L
sg11
L0L
sg12
F114.0
sg13
L0L
sg14
F18.0
sg15
L0L
sg16
L112492L
sg17
L0L
sg18
L412878L
sg19
F0.0
sg20
L0L
sg21
L0L
sg22
L87492L
sg23
L412878L
sg24
F0.0
ssS'DEFFNER JOSEPH M'
p133
(dp134
g3
F714.0
sg4
L0L
sg5
L41626L
sg6
I00
sg7
L335349L
sg8
F115.0
sg9
F0.16106442577030813
sg10
L0L
sg11
L0L
sg12
F552.0
sg13
L0L
sg14
F74.0
sg15
L25553L
sg16
L0L
sg17
L600000L
sg18
L159211L
sg19
F4.0
sg20
L141833L
sg21
L206121L
sg22
L1208649L
sg23
L17378L
sg24
F0.05405405405405406
ssS'KISHKILL JOSEPH G'
p135
(dp136
g3
F383.0
sg4
L0L
sg5
L116335L
sg6
I00
sg7
L0L
sg8
F4.0
sg9
F0.0
sg10
L-51042L
sg11
L0L
sg12
F114.0
sg13
L0L
sg14
F18.0
sg15
L465357L
sg16
L0L
sg17
L0L
sg18
L1034346L
sg19
F0.0
sg20
L1034346L
sg21
L174246L
sg22
L704896L
sg23
L0L
sg24
F0.0
ssS'WHALLEY LAWRENCE G'
p137
(dp138
g3
F6019.0
sg4
L0L
sg5
L57838L
sg6
I00
sg7
L808346L
sg8
F186.0
sg9
F0.03090214321315833
sg10
L0L
sg11
L0L
sg12
F3920.0
sg13
L0L
sg14
F556.0
sg15
L301026L
sg16
L0L
sg17
L3000000L
sg18
L6079137L
sg19
F24.0
sg20
L2796177L
sg21
L510364L
sg22
L4677574L
sg23
L3282960L
sg24
F0.04316546762589928
ssS'MCCARTY DANNY J'
p139
(dp140
g3
F1433.0
sg4
L0L
sg5
L0L
sg6
I00
sg7
L0L
sg8
F25.0
sg9
F0.017445917655268667
sg10
L0L
sg11
L0L
sg12
F508.0
sg13
L0L
sg14
F215.0
sg15
L0L
sg16
L0L
sg17
L0L
sg18
L758931L
sg19
F2.0
sg20
L94556L
sg21
L0L
sg22
L0L
sg23
L664375L
sg24
F0.009302325581395349
ssS'MCCONNELL MICHAEL S'
p141
(dp142
g3
F3329.0
sg4
L0L
sg5
L81364L
sg6
I00
sg7
L554422L
sg8
F92.0
sg9
F0.02763592670471613
sg10
L0L
sg11
L0L
sg12
F2189.0
sg13
L0L
sg14
F2742.0
sg15
L540L
sg16
L0L
sg17
L1100000L
sg18
L3101279L
sg19
F194.0
sg20
L1478269L
sg21
L365038L
sg22
L2101364L
sg23
L1623010L
sg24
F0.07075127644055434
ssS'DELAINEY DAVID W'
p143
(dp144
g3
F3093.0
sg4
L0L
sg5
L86174L
sg6
I01
sg7
L1294981L
sg8
F66.0
sg9
F0.02133850630455868
sg10
L0L
sg11
L0L
sg12
F2097.0
sg13
L0L
sg14
F3069.0
sg15
L1661L
sg16
L0L
sg17
L3000000L
sg18
L3614261L
sg19
F609.0
sg20
L1323148L
sg21
L365163L
sg22
L4747979L
sg23
L2291113L
sg24
F0.198435972629521
ssS'SULLIVAN-SHAKLOVITZ COLLEEN'
p145
(dp146
g3
F383.0
sg4
L181993L
sg5
L0L
sg6
I00
sg7
L554422L
sg8
F4.0
sg9
F0.0
sg10
L0L
sg11
L0L
sg12
F114.0
sg13
L0L
sg14
F18.0
sg15
L162L
sg16
L0L
sg17
L100000L
sg18
L1362375L
sg19
F0.0
sg20
L0L
sg21
L162779L
sg22
L999356L
sg23
L1362375L
sg24
F0.0
ssS'WROBEL BRUCE'
p147
(dp148
g3
F383.0
sg4
L0L
sg5
L0L
sg6
I00
sg7
L0L
sg8
F4.0
sg9
F0.0
sg10
L0L
sg11
L0L
sg12
F114.0
sg13
L0L
sg14
F18.0
sg15
L0L
sg16
L0L
sg17
L0L
sg18
L139130L
sg19
F0.0
sg20
L0L
sg21
L0L
sg22
L0L
sg23
L139130L
sg24
F0.0
ssS'LINDHOLM TOD A'
p149
(dp150
g3
F383.0
sg4
L204075L
sg5
L57727L
sg6
I00
sg7
L175000L
sg8
F4.0
sg9
F0.0
sg10
L0L
sg11
L0L
sg12
F114.0
sg13
L0L
sg14
F18.0
sg15
L2630L
sg16
L0L
sg17
L200000L
sg18
L3064208L
sg19
F0.0
sg20
L514847L
sg21
L236457L
sg22
L875889L
sg23
L2549361L
sg24
F0.0
ssS'MEYER JEROME J'
p151
(dp152
g3
F383.0
sg4
L0L
sg5
L2151L
sg6
I00
sg7
L0L
sg8
F4.0
sg9
F0.0
sg10
L-38346L
sg11
L0L
sg12
F114.0
sg13
L0L
sg14
F18.0
sg15
L0L
sg16
L38346L
sg17
L0L
sg18
L0L
sg19
F0.0
sg20
L0L
sg21
L0L
sg22
L2151L
sg23
L0L
sg24
F0.0
ssS'LAY KENNETH L'
p153
(dp154
g3
F4273.0
sg4
L202911L
sg5
L99832L
sg6
I01
sg7
L3600000L
sg8
F123.0
sg9
F0.028785396676807865
sg10
L-300000L
sg11
L0L
sg12
F2411.0
sg13
L81525000L
sg14
F36.0
sg15
L10359729L
sg16
L0L
sg17
L7000000L
sg18
L49110078L
sg19
F16.0
sg20
L14761694L
sg21
L1072321L
sg22
L103559793L
sg23
L34348384L
sg24
F0.4444444444444444
ssS'BUTTS ROBERT H'
p155
(dp156
g3
F383.0
sg4
L0L
sg5
L9410L
sg6
I00
sg7
L175000L
sg8
F4.0
sg9
F0.0
sg10
L-75000L
sg11
L0L
sg12
F114.0
sg13
L0L
sg14
F18.0
sg15
L150656L
sg16
L0L
sg17
L750000L
sg18
L417619L
sg19
F0.0
sg20
L417619L
sg21
L261516L
sg22
L1271582L
sg23
L0L
sg24
F0.0
ssS'OLSON CINDY K'
p157
(dp158
g3
F1184.0
sg4
L77716L
sg5
L63791L
sg6
I00
sg7
L100000L
sg8
F20.0
sg9
F0.016891891891891893
sg10
L0L
sg11
L0L
sg12
F856.0
sg13
L0L
sg14
F52.0
sg15
L972L
sg16
L0L
sg17
L750000L
sg18
L2606763L
sg19
F15.0
sg20
L969729L
sg21
L329078L
sg22
L1321557L
sg23
L1637034L
sg24
F0.28846153846153844
ssS'MCDONALD REBECCA'
p159
(dp160
g3
F894.0
sg4
L0L
sg5
L0L
sg6
I00
sg7
L0L
sg8
F54.0
sg9
F0.06040268456375839
sg10
L0L
sg11
L0L
sg12
F720.0
sg13
L0L
sg14
F13.0
sg15
L0L
sg16
L0L
sg17
L0L
sg18
L1691366L
sg19
F1.0
sg20
L934065L
sg21
L0L
sg22
L0L
sg23
L757301L
sg24
F0.07692307692307693
ssS'CUMBERLAND MICHAEL S'
p161
(dp162
g3
F383.0
sg4
L0L
sg5
L22344L
sg6
I00
sg7
L275000L
sg8
F4.0
sg9
F0.0
sg10
L0L
sg11
L0L
sg12
F114.0
sg13
L0L
sg14
F18.0
sg15
L713L
sg16
L0L
sg17
L325000L
sg18
L207940L
sg19
F0.0
sg20
L207940L
sg21
L184899L
sg22
L807956L
sg23
L0L
sg24
F0.0
ssS'GAHN ROBERT S'
p163
(dp164
g3
F383.0
sg4
L73122L
sg5
L50080L
sg6
I00
sg7
L0L
sg8
F4.0
sg9
F0.0
sg10
L-1042L
sg11
L0L
sg12
F114.0
sg13
L0L
sg14
F18.0
sg15
L76547L
sg16
L0L
sg17
L509870L
sg18
L318607L
sg19
F0.0
sg20
L235370L
sg21
L192008L
sg22
L900585L
sg23
L83237L
sg24
F0.0
ssS'MCCLELLAN GEORGE'
p165
(dp166
g3
F1744.0
sg4
L0L
sg5
L228763L
sg6
I00
sg7
L0L
sg8
F52.0
sg9
F0.02981651376146789
sg10
L-125000L
sg11
L0L
sg12
F1469.0
sg13
L0L
sg14
F49.0
sg15
L51587L
sg16
L0L
sg17
L900000L
sg18
L947861L
sg19
F0.0
sg20
L441096L
sg21
L263413L
sg22
L1318763L
sg23
L506765L
sg24
F0.0
ssS'HERMANN ROBERT J'
p167
(dp168
g3
F383.0
sg4
L0L
sg5
L48357L
sg6
I00
sg7
L150000L
sg8
F4.0
sg9
F0.0
sg10
L-280000L
sg11
L0L
sg12
F114.0
sg13
L0L
sg14
F18.0
sg15
L416441L
sg16
L0L
sg17
L700000L
sg18
L668132L
sg19
F0.0
sg20
L480632L
sg21
L262663L
sg22
L1297461L
sg23
L187500L
sg24
F0.0
ssS'SCRIMSHAW MATTHEW'
p169
(dp170
g3
F383.0
sg4
L0L
sg5
L0L
sg6
I00
sg7
L0L
sg8
F4.0
sg9
F0.0
sg10
L0L
sg11
L0L
sg12
F114.0
sg13
L0L
sg14
F18.0
sg15
L0L
sg16
L0L
sg17
L0L
sg18
L759557L
sg19
F0.0
sg20
L0L
sg21
L0L
sg22
L0L
sg23
L759557L
sg24
F0.0
ssS'GATHMANN WILLIAM D'
p171
(dp172
g3
F383.0
sg4
L0L
sg5
L0L
sg6
I00
sg7
L0L
sg8
F4.0
sg9
F0.0
sg10
L0L
sg11
L-72419L
sg12
F114.0
sg13
L0L
sg14
F18.0
sg15
L0L
sg16
L0L
sg17
L0L
sg18
L1945360L
sg19
F0.0
sg20
L264013L
sg21
L0L
sg22
L0L
sg23
L1753766L
sg24
F0.0
ssS'HAEDICKE MARK E'
p173
(dp174
g3
F4009.0
sg4
L2157527L
sg5
L76169L
sg6
I00
sg7
L983346L
sg8
F180.0
sg9
F0.04489897730107259
sg10
L-934484L
sg11
L-329825L
sg12
F1847.0
sg13
L0L
sg14
F1941.0
sg15
L52382L
sg16
L0L
sg17
L1150000L
sg18
L803094L
sg19
F61.0
sg20
L524169L
sg21
L374125L
sg22
L3859065L
sg23
L608750L
sg24
F0.03142709943328181
ssS'BOWEN JR RAYMOND M'
p175
(dp176
g3
F1858.0
sg4
L0L
sg5
L65907L
sg6
I01
sg7
L974293L
sg8
F140.0
sg9
F0.07534983853606028
sg10
L-833L
sg11
L0L
sg12
F1593.0
sg13
L0L
sg14
F27.0
sg15
L1621L
sg16
L0L
sg17
L1350000L
sg18
L252055L
sg19
F15.0
sg20
L252055L
sg21
L278601L
sg22
L2669589L
sg23
L0L
sg24
F0.5555555555555556
ssS'GILLIS JOHN'
p177
(dp178
g3
F383.0
sg4
L0L
sg5
L0L
sg6
I00
sg7
L0L
sg8
F4.0
sg9
F0.0
sg10
L0L
sg11
L0L
sg12
F114.0
sg13
L0L
sg14
F18.0
sg15
L0L
sg16
L0L
sg17
L0L
sg18
L85641L
sg19
F0.0
sg20
L75838L
sg21
L0L
sg22
L0L
sg23
L9803L
sg24
F0.0
ssS'FITZGERALD JAY L'
p179
(dp180
g3
F936.0
sg4
L0L
sg5
L23870L
sg6
I00
sg7
L556416L
sg8
F1.0
sg9
F0.0010683760683760685
sg10
L0L
sg11
L0L
sg12
F723.0
sg13
L0L
sg14
F16.0
sg15
L285414L
sg16
L0L
sg17
L350000L
sg18
L1621236L
sg19
F8.0
sg20
L956775L
sg21
L199157L
sg22
L1414857L
sg23
L664461L
sg24
F0.5
ssS'MORAN MICHAEL P'
p181
(dp182
g3
F672.0
sg4
L0L
sg5
L0L
sg6
I00
sg7
L0L
sg8
F4.0
sg9
F0.0
sg10
L0L
sg11
L0L
sg12
F127.0
sg13
L0L
sg14
F19.0
sg15
L0L
sg16
L0L
sg17
L0L
sg18
L221141L
sg19
F0.0
sg20
L161602L
sg21
L0L
sg22
L0L
sg23
L59539L
sg24
F0.0
ssS'REDMOND BRIAN L'
p183
(dp184
g3
F1671.0
sg4
L0L
sg5
L14689L
sg6
I00
sg7
L0L
sg8
F204.0
sg9
F0.12208258527827648
sg10
L0L
sg11
L0L
sg12
F1063.0
sg13
L0L
sg14
F221.0
sg15
L0L
sg16
L0L
sg17
L0L
sg18
L7890324L
sg19
F49.0
sg20
L381285L
sg21
L96840L
sg22
L111529L
sg23
L7509039L
sg24
F0.22171945701357465
ssS'BAZELIDES PHILIP J'
p185
(dp186
g3
F383.0
sg4
L684694L
sg5
L0L
sg6
I00
sg7
L93750L
sg8
F4.0
sg9
F0.0
sg10
L0L
sg11
L0L
sg12
F114.0
sg13
L0L
sg14
F18.0
sg15
L874L
sg16
L0L
sg17
L0L
sg18
L1599641L
sg19
F0.0
sg20
L0L
sg21
L80818L
sg22
L860136L
sg23
L1599641L
sg24
F0.0
ssS'BELDEN TIMOTHY N'
p187
(dp188
g3
F7991.0
sg4
L2144013L
sg5
L17355L
sg6
I01
sg7
L0L
sg8
F228.0
sg9
F0.028532098610937303
sg10
L-2334434L
sg11
L0L
sg12
F5521.0
sg13
L0L
sg14
F484.0
sg15
L210698L
sg16
L0L
sg17
L5249999L
sg18
L1110705L
sg19
F108.0
sg20
L157569L
sg21
L213999L
sg22
L5501630L
sg23
L953136L
sg24
F0.2231404958677686
ssS'DURAN WILLIAM D'
p189
(dp190
g3
F904.0
sg4
L0L
sg5
L25785L
sg6
I00
sg7
L1105218L
sg8
F106.0
sg9
F0.1172566371681416
sg10
L0L
sg11
L0L
sg12
F599.0
sg13
L0L
sg14
F12.0
sg15
L1568L
sg16
L0L
sg17
L750000L
sg18
L1640910L
sg19
F3.0
sg20
L189041L
sg21
L210692L
sg22
L2093263L
sg23
L1451869L
sg24
F0.25
ssS'THORN TERENCE H'
p191
(dp192
g3
F266.0
sg4
L16586L
sg5
L46145L
sg6
I00
sg7
L200000L
sg8
F4.0
sg9
F0.0
sg10
L0L
sg11
L0L
sg12
F73.0
sg13
L0L
sg14
F41.0
sg15
L426629L
sg16
L0L
sg17
L0L
sg18
L4817796L
sg19
F0.0
sg20
L365320L
sg21
L222093L
sg22
L911453L
sg23
L4452476L
sg24
F0.0
ssS'FASTOW ANDREW S'
p193
(dp194
g3
F383.0
sg4
L0L
sg5
L55921L
sg6
I01
sg7
L1736055L
sg8
F4.0
sg9
F0.0
sg10
L-1386055L
sg11
L0L
sg12
F114.0
sg13
L0L
sg14
F18.0
sg15
L277464L
sg16
L0L
sg17
L1300000L
sg18
L1794412L
sg19
F0.0
sg20
L1794412L
sg21
L440698L
sg22
L2424083L
sg23
L0L
sg24
F0.0
ssS'FOY JOE'
p195
(dp196
g3
F57.0
sg4
L181755L
sg5
L0L
sg6
I00
sg7
L0L
sg8
F4.0
sg9
F0.0
sg10
L0L
sg11
L0L
sg12
F2.0
sg13
L0L
sg14
F13.0
sg15
L0L
sg16
L0L
sg17
L0L
sg18
L343434L
sg19
F0.0
sg20
L0L
sg21
L0L
sg22
L181755L
sg23
L343434L
sg24
F0.0
ssS'CALGER CHRISTOPHER F'
p197
(dp198
g3
F2598.0
sg4
L0L
sg5
L35818L
sg6
I01
sg7
L375304L
sg8
F199.0
sg9
F0.07659738260200154
sg10
L-262500L
sg11
L0L
sg12
F2188.0
sg13
L0L
sg14
F144.0
sg15
L486L
sg16
L0L
sg17
L1250000L
sg18
L126027L
sg19
F25.0
sg20
L126027L
sg21
L240189L
sg22
L1639297L
sg23
L0L
sg24
F0.1736111111111111
ssS'RICE KENNETH D'
p199
(dp200
g3
F905.0
sg4
L0L
sg5
L46950L
sg6
I01
sg7
L1617011L
sg8
F42.0
sg9
F0.04640883977900553
sg10
L-3504386L
sg11
L0L
sg12
F864.0
sg13
L0L
sg14
F18.0
sg15
L174839L
sg16
L0L
sg17
L1750000L
sg18
L22542539L
sg19
F4.0
sg20
L2748364L
sg21
L420636L
sg22
L505050L
sg23
L19794175L
sg24
F0.2222222222222222
ssS'KAMINSKI WINCENTY J'
p201
(dp202
g3
F4607.0
sg4
L0L
sg5
L83585L
sg6
I00
sg7
L323466L
sg8
F41.0
sg9
F0.008899500759713479
sg10
L0L
sg11
L0L
sg12
F583.0
sg13
L0L
sg14
F14368.0
sg15
L4669L
sg16
L0L
sg17
L400000L
sg18
L976037L
sg19
F171.0
sg20
L126027L
sg21
L275101L
sg22
L1086821L
sg23
L850010L
sg24
F0.011901447661469933
ssS'COX DAVID'
p203
(dp204
g3
F102.0
sg4
L0L
sg5
L27861L
sg6
I00
sg7
L0L
sg8
F4.0
sg9
F0.0
sg10
L-41250L
sg11
L0L
sg12
F71.0
sg13
L0L
sg14
F33.0
sg15
L494L
sg16
L0L
sg17
L800000L
sg18
L495633L
sg19
F4.0
sg20
L378082L
sg21
L314288L
sg22
L1101393L
sg23
L117551L
sg24
F0.12121212121212122
ssS'OVERDYKE JR JERE C'
p205
(dp206
g3
F383.0
sg4
L0L
sg5
L18834L
sg6
I00
sg7
L135836L
sg8
F4.0
sg9
F0.0
sg10
L0L
sg11
L0L
sg12
F114.0
sg13
L0L
sg14
F18.0
sg15
L176L
sg16
L0L
sg17
L0L
sg18
L7307594L
sg19
F0.0
sg20
L2041016L
sg21
L94941L
sg22
L249787L
sg23
L5266578L
sg24
F0.0
ssS'PEREIRA PAULO V. FERRAZ'
p207
(dp208
g3
F383.0
sg4
L0L
sg5
L27942L
sg6
I00
sg7
L0L
sg8
F4.0
sg9
F0.0
sg10
L-101250L
sg11
L0L
sg12
F114.0
sg13
L0L
sg14
F18.0
sg15
L0L
sg16
L101250L
sg17
L0L
sg18
L0L
sg19
F0.0
sg20
L0L
sg21
L0L
sg22
L27942L
sg23
L0L
sg24
F0.0
ssS'STABLER FRANK'
p209
(dp210
g3
F383.0
sg4
L0L
sg5
L16514L
sg6
I00
sg7
L0L
sg8
F4.0
sg9
F0.0
sg10
L0L
sg11
L0L
sg12
F114.0
sg13
L0L
sg14
F18.0
sg15
L356071L
sg16
L0L
sg17
L500000L
sg18
L511734L
sg19
F0.0
sg20
L511734L
sg21
L239502L
sg22
L1112087L
sg23
L0L
sg24
F0.0
ssS'SKILLING JEFFREY K'
p211
(dp212
g3
F3627.0
sg4
L0L
sg5
L29336L
sg6
I01
sg7
L1920000L
sg8
F88.0
sg9
F0.0242624758753791
sg10
L0L
sg11
L0L
sg12
F2042.0
sg13
L0L
sg14
F108.0
sg15
L22122L
sg16
L0L
sg17
L5600000L
sg18
L26093672L
sg19
F30.0
sg20
L6843672L
sg21
L1111258L
sg22
L8682716L
sg23
L19250000L
sg24
F0.2777777777777778
ssS'BLAKE JR. NORMAN P'
p213
(dp214
g3
F383.0
sg4
L0L
sg5
L1279L
sg6
I00
sg7
L0L
sg8
F4.0
sg9
F0.0
sg10
L-113784L
sg11
L0L
sg12
F114.0
sg13
L0L
sg14
F18.0
sg15
L0L
sg16
L113784L
sg17
L0L
sg18
L0L
sg19
F0.0
sg20
L0L
sg21
L0L
sg22
L1279L
sg23
L0L
sg24
F0.0
ssS'SHERRICK JEFFREY B'
p215
(dp216
g3
F613.0
sg4
L0L
sg5
L0L
sg6
I00
sg7
L0L
sg8
F39.0
sg9
F0.0636215334420881
sg10
L0L
sg11
L0L
sg12
F583.0
sg13
L0L
sg14
F25.0
sg15
L0L
sg16
L0L
sg17
L0L
sg18
L1832468L
sg19
F18.0
sg20
L405999L
sg21
L0L
sg22
L0L
sg23
L1426469L
sg24
F0.72
ssS'PRENTICE JAMES'
p217
(dp218
g3
F383.0
sg4
L564348L
sg5
L0L
sg6
I00
sg7
L0L
sg8
F4.0
sg9
F0.0
sg10
L0L
sg11
L0L
sg12
F114.0
sg13
L0L
sg14
F18.0
sg15
L0L
sg16
L0L
sg17
L0L
sg18
L1095040L
sg19
F0.0
sg20
L208809L
sg21
L0L
sg22
L564348L
sg23
L886231L
sg24
F0.0
ssS'GRAY RODNEY'
p219
(dp220
g3
F383.0
sg4
L93585L
sg5
L0L
sg6
I00
sg7
L365625L
sg8
F4.0
sg9
F0.0
sg10
L0L
sg11
L0L
sg12
F114.0
sg13
L0L
sg14
F18.0
sg15
L680833L
sg16
L0L
sg17
L0L
sg18
L0L
sg19
F0.0
sg20
L0L
sg21
L6615L
sg22
L1146658L
sg23
L0L
sg24
F0.0
ssS'PICKERING MARK R'
p221
(dp222
g3
F898.0
sg4
L0L
sg5
L31653L
sg6
I00
sg7
L0L
sg8
F7.0
sg9
F0.0077951002227171495
sg10
L0L
sg11
L0L
sg12
F728.0
sg13
L400000L
sg14
F67.0
sg15
L0L
sg16
L0L
sg17
L300000L
sg18
L28798L
sg19
F0.0
sg20
L0L
sg21
L655037L
sg22
L1386690L
sg23
L28798L
sg24
F0.0
ssS'NOLES JAMES L'
p223
(dp224
g3
F383.0
sg4
L774401L
sg5
L0L
sg6
I00
sg7
L0L
sg8
F4.0
sg9
F0.0
sg10
L0L
sg11
L-94556L
sg12
F114.0
sg13
L0L
sg14
F18.0
sg15
L0L
sg16
L0L
sg17
L0L
sg18
L368705L
sg19
F0.0
sg20
L463261L
sg21
L0L
sg22
L774401L
sg23
L0L
sg24
F0.0
ssS'KEAN STEVEN J'
p225
(dp226
g3
F12754.0
sg4
L0L
sg5
L41953L
sg6
I00
sg7
L300000L
sg8
F140.0
sg9
F0.010976948408342482
sg10
L0L
sg11
L0L
sg12
F3639.0
sg13
L0L
sg14
F6759.0
sg15
L1231L
sg16
L0L
sg17
L1000000L
sg18
L6153642L
sg19
F387.0
sg20
L4131594L
sg21
L404338L
sg22
L1747522L
sg23
L2022048L
sg24
F0.05725699067909454
ssS'FOWLER PEGGY'
p227
(dp228
g3
F517.0
sg4
L0L
sg5
L0L
sg6
I00
sg7
L0L
sg8
F4.0
sg9
F0.0
sg10
L0L
sg11
L0L
sg12
F10.0
sg13
L0L
sg14
F36.0
sg15
L0L
sg16
L0L
sg17
L0L
sg18
L1884748L
sg19
F0.0
sg20
L560170L
sg21
L0L
sg22
L0L
sg23
L1324578L
sg24
F0.0
ssS'WASAFF GEORGE'
p229
(dp230
g3
F400.0
sg4
L831299L
sg5
L0L
sg6
I00
sg7
L200000L
sg8
F22.0
sg9
F0.055
sg10
L-583325L
sg11
L0L
sg12
F337.0
sg13
L0L
sg14
F30.0
sg15
L1425L
sg16
L0L
sg17
L325000L
sg18
L2056427L
sg19
F7.0
sg20
L388167L
sg21
L259996L
sg22
L1034395L
sg23
L1668260L
sg24
F0.23333333333333334
ssS'WHITE JR THOMAS E'
p231
(dp232
g3
F383.0
sg4
L0L
sg5
L81353L
sg6
I00
sg7
L0L
sg8
F4.0
sg9
F0.0
sg10
L0L
sg11
L0L
sg12
F114.0
sg13
L0L
sg14
F18.0
sg15
L1085463L
sg16
L0L
sg17
L450000L
sg18
L15144123L
sg19
F0.0
sg20
L13847074L
sg21
L317543L
sg22
L1934359L
sg23
L1297049L
sg24
F0.0
ssS'CHRISTODOULOU DIOMEDES'
p233
(dp234
g3
F383.0
sg4
L0L
sg5
L0L
sg6
I00
sg7
L0L
sg8
F4.0
sg9
F0.0
sg10
L0L
sg11
L0L
sg12
F114.0
sg13
L0L
sg14
F18.0
sg15
L0L
sg16
L0L
sg17
L0L
sg18
L6077885L
sg19
F0.0
sg20
L950730L
sg21
L0L
sg22
L0L
sg23
L5127155L
sg24
F0.0
ssS'ALLEN PHILLIP K'
p235
(dp236
g3
F2902.0
sg4
L2869717L
sg5
L13868L
sg6
I00
sg7
L304805L
sg8
F47.0
sg9
F0.016195727084769126
sg10
L-3081055L
sg11
L-126027L
sg12
F1407.0
sg13
L0L
sg14
F2195.0
sg15
L152L
sg16
L0L
sg17
L4175000L
sg18
L1729541L
sg19
F65.0
sg20
L126027L
sg21
L201955L
sg22
L4484442L
sg23
L1729541L
sg24
F0.029612756264236904
ssS'SHARP VICTORIA T'
p237
(dp238
g3
F3136.0
sg4
L187469L
sg5
L116337L
sg6
I00
sg7
L422158L
sg8
F24.0
sg9
F0.007653061224489796
sg10
L0L
sg11
L0L
sg12
F2477.0
sg13
L0L
sg14
F136.0
sg15
L2401L
sg16
L0L
sg17
L600000L
sg18
L494136L
sg19
F6.0
sg20
L213063L
sg21
L248146L
sg22
L1576511L
sg23
L281073L
sg24
F0.04411764705882353
ssS'JAEDICKE ROBERT'
p239
(dp240
g3
F383.0
sg4
L0L
sg5
L0L
sg6
I00
sg7
L0L
sg8
F4.0
sg9
F0.0
sg10
L-25000L
sg11
L-44093L
sg12
F114.0
sg13
L0L
sg14
F18.0
sg15
L0L
sg16
L108750L
sg17
L0L
sg18
L431750L
sg19
F0.0
sg20
L44093L
sg21
L0L
sg22
L83750L
sg23
L431750L
sg24
F0.0
ssS'WINOKUR JR. HERBERT S'
p241
(dp242
g3
F383.0
sg4
L0L
sg5
L1413L
sg6
I00
sg7
L0L
sg8
F4.0
sg9
F0.0
sg10
L-25000L
sg11
L0L
sg12
F114.0
sg13
L0L
sg14
F18.0
sg15
L0L
sg16
L108579L
sg17
L0L
sg18
L0L
sg19
F0.0
sg20
L0L
sg21
L0L
sg22
L84992L
sg23
L0L
sg24
F0.0
ssS'BROWN MICHAEL'
p243
(dp244
g3
F1486.0
sg4
L0L
sg5
L49288L
sg6
I00
sg7
L0L
sg8
F13.0
sg9
F0.008748317631224764
sg10
L0L
sg11
L0L
sg12
F761.0
sg13
L0L
sg14
F41.0
sg15
L0L
sg16
L0L
sg17
L0L
sg18
L0L
sg19
F1.0
sg20
L0L
sg21
L0L
sg22
L49288L
sg23
L0L
sg24
F0.024390243902439025
ssS'BADUM JAMES P'
p245
(dp246
g3
F383.0
sg4
L178980L
sg5
L3486L
sg6
I00
sg7
L0L
sg8
F4.0
sg9
F0.0
sg10
L0L
sg11
L0L
sg12
F114.0
sg13
L0L
sg14
F18.0
sg15
L0L
sg16
L0L
sg17
L0L
sg18
L257817L
sg19
F0.0
sg20
L0L
sg21
L0L
sg22
L182466L
sg23
L257817L
sg24
F0.0
ssS'HUGHES JAMES A'
p247
(dp248
g3
F719.0
sg4
L0L
sg5
L0L
sg6
I00
sg7
L0L
sg8
F35.0
sg9
F0.048678720445062586
sg10
L0L
sg11
L0L
sg12
F589.0
sg13
L0L
sg14
F34.0
sg15
L0L
sg16
L0L
sg17
L0L
sg18
L1118394L
sg19
F5.0
sg20
L363428L
sg21
L0L
sg22
L0L
sg23
L754966L
sg24
F0.14705882352941177
ssS'REYNOLDS LAWRENCE'
p249
(dp250
g3
F383.0
sg4
L51365L
sg5
L8409L
sg6
I00
sg7
L156250L
sg8
F4.0
sg9
F0.0
sg10
L-200000L
sg11
L-140264L
sg12
F114.0
sg13
L0L
sg14
F18.0
sg15
L202052L
sg16
L0L
sg17
L100000L
sg18
L4221891L
sg19
F0.0
sg20
L201483L
sg21
L76399L
sg22
L394475L
sg23
L4160672L
sg24
F0.0
ssS'DIMICHELE RICHARD G'
p251
(dp252
g3
F383.0
sg4
L0L
sg5
L35812L
sg6
I00
sg7
L694862L
sg8
F4.0
sg9
F0.0
sg10
L0L
sg11
L0L
sg12
F114.0
sg13
L0L
sg14
F18.0
sg15
L374689L
sg16
L0L
sg17
L1000000L
sg18
L8317782L
sg19
F0.0
sg20
L126027L
sg21
L262788L
sg22
L2368151L
sg23
L8191755L
sg24
F0.0
ssS'BHATNAGAR SANJAY'
p253
(dp254
g3
F523.0
sg4
L0L
sg5
L0L
sg6
I00
sg7
L0L
sg8
F4.0
sg9
F0.0
sg10
L0L
sg11
L15456290L
sg12
F463.0
sg13
L0L
sg14
F29.0
sg15
L137864L
sg16
L137864L
sg17
L0L
sg18
L0L
sg19
F1.0
sg20
L-2604490L
sg21
L0L
sg22
L15456290L
sg23
L2604490L
sg24
F0.034482758620689655
ssS'CARTER REBECCA C'
p255
(dp256
g3
F312.0
sg4
L0L
sg5
L0L
sg6
I00
sg7
L75000L
sg8
F29.0
sg9
F0.09294871794871795
sg10
L-159792L
sg11
L-307301L
sg12
F196.0
sg13
L0L
sg14
F15.0
sg15
L540L
sg16
L0L
sg17
L300000L
sg18
L0L
sg19
F7.0
sg20
L307301L
sg21
L261809L
sg22
L477557L
sg23
L0L
sg24
F0.4666666666666667
ssS'BUCHANAN HAROLD G'
p257
(dp258
g3
F1088.0
sg4
L0L
sg5
L600L
sg6
I00
sg7
L304805L
sg8
F4.0
sg9
F0.0
sg10
L0L
sg11
L0L
sg12
F23.0
sg13
L0L
sg14
F125.0
sg15
L1215L
sg16
L0L
sg17
L500000L
sg18
L1014505L
sg19
F0.0
sg20
L189041L
sg21
L248017L
sg22
L1054637L
sg23
L825464L
sg24
F0.0
ssS'YEAP SOON'
p259
(dp260
g3
F383.0
sg4
L0L
sg5
L55097L
sg6
I00
sg7
L0L
sg8
F4.0
sg9
F0.0
sg10
L0L
sg11
L0L
sg12
F114.0
sg13
L0L
sg14
F18.0
sg15
L0L
sg16
L0L
sg17
L0L
sg18
L192758L
sg19
F0.0
sg20
L0L
sg21
L0L
sg22
L55097L
sg23
L192758L
sg24
F0.0
ssS'MURRAY JULIA H'
p261
(dp262
g3
F2192.0
sg4
L0L
sg5
L57580L
sg6
I00
sg7
L125000L
sg8
F11.0
sg9
F0.005018248175182482
sg10
L0L
sg11
L0L
sg12
F395.0
sg13
L0L
sg14
F45.0
sg15
L330L
sg16
L0L
sg17
L400000L
sg18
L597461L
sg19
F2.0
sg20
L196983L
sg21
L229284L
sg22
L812194L
sg23
L400478L
sg24
F0.044444444444444446
ssS'GARLAND C KEVIN'
p263
(dp264
g3
F209.0
sg4
L0L
sg5
L48405L
sg6
I00
sg7
L375304L
sg8
F10.0
sg9
F0.04784688995215311
sg10
L0L
sg11
L0L
sg12
F178.0
sg13
L0L
sg14
F44.0
sg15
L60814L
sg16
L0L
sg17
L850000L
sg18
L896153L
sg19
F27.0
sg20
L259907L
sg21
L231946L
sg22
L1566469L
sg23
L636246L
sg24
F0.6136363636363636
ssS'DODSON KEITH'
p265
(dp266
g3
F176.0
sg4
L0L
sg5
L28164L
sg6
I00
sg7
L0L
sg8
F10.0
sg9
F0.056818181818181816
sg10
L0L
sg11
L0L
sg12
F114.0
sg13
L0L
sg14
F14.0
sg15
L774L
sg16
L0L
sg17
L70000L
sg18
L0L
sg19
F3.0
sg20
L0L
sg21
L221003L
sg22
L319941L
sg23
L0L
sg24
F0.21428571428571427
ssS'YEAGER F SCOTT'
p267
(dp268
g3
F383.0
sg4
L0L
sg5
L53947L
sg6
I01
sg7
L0L
sg8
F4.0
sg9
F0.0
sg10
L0L
sg11
L0L
sg12
F114.0
sg13
L0L
sg14
F18.0
sg15
L147950L
sg16
L0L
sg17
L0L
sg18
L11884758L
sg19
F0.0
sg20
L3576206L
sg21
L158403L
sg22
L360300L
sg23
L8308552L
sg24
F0.0
ssS'HIRKO JOSEPH'
p269
(dp270
g3
F383.0
sg4
L10259L
sg5
L77978L
sg6
I01
sg7
L0L
sg8
F4.0
sg9
F0.0
sg10
L0L
sg11
L0L
sg12
F114.0
sg13
L0L
sg14
F18.0
sg15
L2856L
sg16
L0L
sg17
L0L
sg18
L30766064L
sg19
F0.0
sg20
L0L
sg21
L0L
sg22
L91093L
sg23
L30766064L
sg24
F0.0
ssS'DIETRICH JANET R'
p271
(dp272
g3
F2572.0
sg4
L0L
sg5
L3475L
sg6
I00
sg7
L556416L
sg8
F305.0
sg9
F0.11858475894245724
sg10
L0L
sg11
L0L
sg12
F1902.0
sg13
L0L
sg14
F63.0
sg15
L473L
sg16
L0L
sg17
L600000L
sg18
L1865087L
sg19
F14.0
sg20
L315068L
sg21
L250100L
sg22
L1410464L
sg23
L1550019L
sg24
F0.2222222222222222
ssS'DERRICK JR. JAMES V'
p273
(dp274
g3
F2181.0
sg4
L0L
sg5
L51124L
sg6
I00
sg7
L484000L
sg8
F64.0
sg9
F0.029344337459880788
sg10
L-1284000L
sg11
L-1787380L
sg12
F1401.0
sg13
L0L
sg14
F909.0
sg15
L7482L
sg16
L0L
sg17
L800000L
sg18
L8831913L
sg19
F20.0
sg20
L1787380L
sg21
L492375L
sg22
L550981L
sg23
L8831913L
sg24
F0.022002200220022004
ssS'FREVERT MARK A'
p275
(dp276
g3
F3275.0
sg4
L6426990L
sg5
L86987L
sg6
I00
sg7
L1617011L
sg8
F242.0
sg9
F0.07389312977099237
sg10
L-3367011L
sg11
L0L
sg12
F2979.0
sg13
L2000000L
sg14
F21.0
sg15
L7427621L
sg16
L0L
sg17
L2000000L
sg18
L14622185L
sg19
F6.0
sg20
L4188667L
sg21
L1060932L
sg22
L17252530L
sg23
L10433518L
sg24
F0.2857142857142857
ssS'PAI LOU L'
p277
(dp278
g3
F383.0
sg4
L0L
sg5
L32047L
sg6
I00
sg7
L0L
sg8
F4.0
sg9
F0.0
sg10
L0L
sg11
L0L
sg12
F114.0
sg13
L0L
sg14
F18.0
sg15
L1829457L
sg16
L0L
sg17
L1000000L
sg18
L23817930L
sg19
F0.0
sg20
L8453763L
sg21
L261879L
sg22
L3123383L
sg23
L15364167L
sg24
F0.0
ssS'BAY FRANKLIN R'
p279
(dp280
g3
F383.0
sg4
L260455L
sg5
L129142L
sg6
I00
sg7
L0L
sg8
F4.0
sg9
F0.0
sg10
L-201641L
sg11
L-82782L
sg12
F114.0
sg13
L0L
sg14
F18.0
sg15
L69L
sg16
L0L
sg17
L400000L
sg18
L63014L
sg19
F0.0
sg20
L145796L
sg21
L239671L
sg22
L827696L
sg23
L0L
sg24
F0.0
ssS'HAYSLETT RODERICK J'
p281
(dp282
g3
F2649.0
sg4
L0L
sg5
L0L
sg6
I00
sg7
L0L
sg8
F35.0
sg9
F0.01321253303133258
sg10
L0L
sg11
L0L
sg12
F571.0
sg13
L0L
sg14
F1061.0
sg15
L0L
sg16
L0L
sg17
L0L
sg18
L346663L
sg19
F38.0
sg20
L346663L
sg21
L0L
sg22
L0L
sg23
L0L
sg24
F0.03581526861451461
ssS'FUGH JOHN L'
p283
(dp284
g3
F383.0
sg4
L50591L
sg5
L0L
sg6
I00
sg7
L0L
sg8
F4.0
sg9
F0.0
sg10
L0L
sg11
L0L
sg12
F114.0
sg13
L0L
sg14
F18.0
sg15
L0L
sg16
L0L
sg17
L0L
sg18
L176378L
sg19
F0.0
sg20
L0L
sg21
L0L
sg22
L50591L
sg23
L176378L
sg24
F0.0
ssS'FALLON JAMES B'
p285
(dp286
g3
F1755.0
sg4
L0L
sg5
L95924L
sg6
I00
sg7
L374347L
sg8
F42.0
sg9
F0.023931623931623933
sg10
L0L
sg11
L0L
sg12
F1604.0
sg13
L0L
sg14
F75.0
sg15
L401481L
sg16
L0L
sg17
L2500000L
sg18
L2332399L
sg19
F37.0
sg20
L1392142L
sg21
L304588L
sg22
L3676340L
sg23
L940257L
sg24
F0.49333333333333335
ssS'KOENIG MARK E'
p287
(dp288
g3
F2374.0
sg4
L0L
sg5
L127017L
sg6
I01
sg7
L300000L
sg8
F53.0
sg9
F0.02232518955349621
sg10
L0L
sg11
L0L
sg12
F2271.0
sg13
L0L
sg14
F61.0
sg15
L150458L
sg16
L0L
sg17
L700000L
sg18
L1920055L
sg19
F15.0
sg20
L1248318L
sg21
L309946L
sg22
L1587421L
sg23
L671737L
sg24
F0.2459016393442623
ssS'SAVAGE FRANK'
p289
(dp290
g3
F383.0
sg4
L0L
sg5
L0L
sg6
I00
sg7
L0L
sg8
F4.0
sg9
F0.0
sg10
L-121284L
sg11
L0L
sg12
F114.0
sg13
L0L
sg14
F18.0
sg15
L0L
sg16
L125034L
sg17
L0L
sg18
L0L
sg19
F0.0
sg20
L0L
sg21
L0L
sg22
L3750L
sg23
L0L
sg24
F0.0
ssS'IZZO LAWRENCE L'
p291
(dp292
g3
F496.0
sg4
L0L
sg5
L28093L
sg6
I00
sg7
L312500L
sg8
F28.0
sg9
F0.056451612903225805
sg10
L0L
sg11
L0L
sg12
F437.0
sg13
L0L
sg14
F19.0
sg15
L1553729L
sg16
L0L
sg17
L0L
sg18
L5819980L
sg19
F5.0
sg20
L3654808L
sg21
L85274L
sg22
L1979596L
sg23
L2165172L
sg24
F0.2631578947368421
ssS'TILNEY ELIZABETH A'
p293
(dp294
g3
F460.0
sg4
L0L
sg5
L0L
sg6
I00
sg7
L275000L
sg8
F10.0
sg9
F0.021739130434782608
sg10
L-575000L
sg11
L0L
sg12
F379.0
sg13
L0L
sg14
F19.0
sg15
L152055L
sg16
L0L
sg17
L300000L
sg18
L1168042L
sg19
F11.0
sg20
L576792L
sg21
L247338L
sg22
L399393L
sg23
L591250L
sg24
F0.5789473684210527
ssS'MARTIN AMANDA K'
p295
(dp296
g3
F1522.0
sg4
L85430L
sg5
L8211L
sg6
I00
sg7
L5145434L
sg8
F8.0
sg9
F0.005256241787122208
sg10
L0L
sg11
L0L
sg12
F477.0
sg13
L0L
sg14
F230.0
sg15
L2818454L
sg16
L0L
sg17
L0L
sg18
L2070306L
sg19
F0.0
sg20
L0L
sg21
L349487L
sg22
L8407016L
sg23
L2070306L
sg24
F0.0
ssS'BUY RICHARD B'
p297
(dp298
g3
F3523.0
sg4
L649584L
sg5
L0L
sg6
I00
sg7
L769862L
sg8
F156.0
sg9
F0.04428044280442804
sg10
L-694862L
sg11
L0L
sg12
F2333.0
sg13
L0L
sg14
F1053.0
sg15
L400572L
sg16
L0L
sg17
L900000L
sg18
L3444470L
sg19
F71.0
sg20
L901657L
sg21
L330546L
sg22
L2355702L
sg23
L2542813L
sg24
F0.06742640075973409
ssS'GRAMM WENDY L'
p299
(dp300
g3
F383.0
sg4
L0L
sg5
L0L
sg6
I00
sg7
L0L
sg8
F4.0
sg9
F0.0
sg10
L0L
sg11
L0L
sg12
F114.0
sg13
L0L
sg14
F18.0
sg15
L0L
sg16
L119292L
sg17
L0L
sg18
L0L
sg19
F0.0
sg20
L0L
sg21
L0L
sg22
L119292L
sg23
L0L
sg24
F0.0
ssS'CAUSEY RICHARD A'
p301
(dp302
g3
F1892.0
sg4
L0L
sg5
L30674L
sg6
I01
sg7
L350000L
sg8
F58.0
sg9
F0.0306553911205074
sg10
L-235000L
sg11
L0L
sg12
F1585.0
sg13
L0L
sg14
F49.0
sg15
L307895L
sg16
L0L
sg17
L1000000L
sg18
L2502063L
sg19
F12.0
sg20
L2502063L
sg21
L415189L
sg22
L1868758L
sg23
L0L
sg24
F0.24489795918367346
ssS'TAYLOR MITCHELL S'
p303
(dp304
g3
F533.0
sg4
L227449L
sg5
L0L
sg6
I00
sg7
L0L
sg8
F4.0
sg9
F0.0
sg10
L0L
sg11
L0L
sg12
F300.0
sg13
L0L
sg14
F29.0
sg15
L0L
sg16
L0L
sg17
L600000L
sg18
L3745048L
sg19
F0.0
sg20
L563798L
sg21
L265214L
sg22
L1092663L
sg23
L3181250L
sg24
F0.0
ssS'DONAHUE JR JEFFREY M'
p305
(dp306
g3
F865.0
sg4
L0L
sg5
L96268L
sg6
I00
sg7
L0L
sg8
F188.0
sg9
F0.21734104046242775
sg10
L-300000L
sg11
L0L
sg12
F772.0
sg13
L0L
sg14
F22.0
sg15
L891L
sg16
L0L
sg17
L800000L
sg18
L1080988L
sg19
F11.0
sg20
L315068L
sg21
L278601L
sg22
L875760L
sg23
L765920L
sg24
F0.5
ssS'GLISAN JR BEN F'
p307
(dp308
g3
F873.0
sg4
L0L
sg5
L125978L
sg6
I01
sg7
L71023L
sg8
F52.0
sg9
F0.05956471935853379
sg10
L0L
sg11
L0L
sg12
F874.0
sg13
L0L
sg14
F16.0
sg15
L200308L
sg16
L0L
sg17
L600000L
sg18
L778546L
sg19
F6.0
sg20
L393818L
sg21
L274975L
sg22
L1272284L
sg23
L384728L
sg24
F0.375
ss.